Archive member included to satisfy reference by file (symbol)

d:/program files/gcc/arm gnu toolchain arm-none-eabi/12.2 rel1/bin/../lib/gcc/arm-none-eabi/12.2.1/thumb/v7+fp/hard\libgcc.a(_aeabi_ldivmod.o)
                              ./rzn/fsp/src/r_sci_uart/r_sci_uart.o (__aeabi_ldivmod)
d:/program files/gcc/arm gnu toolchain arm-none-eabi/12.2 rel1/bin/../lib/gcc/arm-none-eabi/12.2.1/thumb/v7+fp/hard\libgcc.a(_aeabi_uldivmod.o)
                              ./rzn/fsp/src/bsp/mcu/all/bsp_delay.o (__aeabi_uldivmod)
d:/program files/gcc/arm gnu toolchain arm-none-eabi/12.2 rel1/bin/../lib/gcc/arm-none-eabi/12.2.1/thumb/v7+fp/hard\libgcc.a(_udivmoddi4.o)
                              d:/program files/gcc/arm gnu toolchain arm-none-eabi/12.2 rel1/bin/../lib/gcc/arm-none-eabi/12.2.1/thumb/v7+fp/hard\libgcc.a(_aeabi_ldivmod.o) (__udivmoddi4)
d:/program files/gcc/arm gnu toolchain arm-none-eabi/12.2 rel1/bin/../lib/gcc/arm-none-eabi/12.2.1/thumb/v7+fp/hard\libgcc.a(_dvmd_tls.o)
                              d:/program files/gcc/arm gnu toolchain arm-none-eabi/12.2 rel1/bin/../lib/gcc/arm-none-eabi/12.2.1/thumb/v7+fp/hard\libgcc.a(_aeabi_ldivmod.o) (__aeabi_ldiv0)
d:/program files/gcc/arm gnu toolchain arm-none-eabi/12.2 rel1/bin/../lib/gcc/arm-none-eabi/12.2.1/thumb/v7+fp/hard\libg_nano.a(libc_a-malloc.o)
                              ./src/ethercat/beckhoff/Src/cia402appl.o (malloc)
d:/program files/gcc/arm gnu toolchain arm-none-eabi/12.2 rel1/bin/../lib/gcc/arm-none-eabi/12.2.1/thumb/v7+fp/hard\libg_nano.a(libc_a-mallocr.o)
                              d:/program files/gcc/arm gnu toolchain arm-none-eabi/12.2 rel1/bin/../lib/gcc/arm-none-eabi/12.2.1/thumb/v7+fp/hard\libg_nano.a(libc_a-malloc.o) (_malloc_r)
d:/program files/gcc/arm gnu toolchain arm-none-eabi/12.2 rel1/bin/../lib/gcc/arm-none-eabi/12.2.1/thumb/v7+fp/hard\libg_nano.a(libc_a-mlock.o)
                              d:/program files/gcc/arm gnu toolchain arm-none-eabi/12.2 rel1/bin/../lib/gcc/arm-none-eabi/12.2.1/thumb/v7+fp/hard\libg_nano.a(libc_a-mallocr.o) (__malloc_lock)
d:/program files/gcc/arm gnu toolchain arm-none-eabi/12.2 rel1/bin/../lib/gcc/arm-none-eabi/12.2.1/thumb/v7+fp/hard\libg_nano.a(libc_a-nano-vfprintf_float.o)
                              (_printf_float)
d:/program files/gcc/arm gnu toolchain arm-none-eabi/12.2 rel1/bin/../lib/gcc/arm-none-eabi/12.2.1/thumb/v7+fp/hard\libg_nano.a(libc_a-nano-vfprintf_i.o)
                              d:/program files/gcc/arm gnu toolchain arm-none-eabi/12.2 rel1/bin/../lib/gcc/arm-none-eabi/12.2.1/thumb/v7+fp/hard\libg_nano.a(libc_a-nano-vfprintf_float.o) (_printf_common)
d:/program files/gcc/arm gnu toolchain arm-none-eabi/12.2 rel1/bin/../lib/gcc/arm-none-eabi/12.2.1/thumb/v7+fp/hard\libg_nano.a(libc_a-printf.o)
                              ./src/ethercat/beckhoff/Src/bootmode.o (printf)
d:/program files/gcc/arm gnu toolchain arm-none-eabi/12.2 rel1/bin/../lib/gcc/arm-none-eabi/12.2.1/thumb/v7+fp/hard\libg_nano.a(libc_a-puts.o)
                              ./src/ethercat/beckhoff/Src/bootmode.o (puts)
d:/program files/gcc/arm gnu toolchain arm-none-eabi/12.2 rel1/bin/../lib/gcc/arm-none-eabi/12.2.1/thumb/v7+fp/hard\libg_nano.a(libc_a-wbuf.o)
                              d:/program files/gcc/arm gnu toolchain arm-none-eabi/12.2 rel1/bin/../lib/gcc/arm-none-eabi/12.2.1/thumb/v7+fp/hard\libg_nano.a(libc_a-puts.o) (__swbuf_r)
d:/program files/gcc/arm gnu toolchain arm-none-eabi/12.2 rel1/bin/../lib/gcc/arm-none-eabi/12.2.1/thumb/v7+fp/hard\libg_nano.a(libc_a-wsetup.o)
                              d:/program files/gcc/arm gnu toolchain arm-none-eabi/12.2 rel1/bin/../lib/gcc/arm-none-eabi/12.2.1/thumb/v7+fp/hard\libg_nano.a(libc_a-puts.o) (__swsetup_r)
d:/program files/gcc/arm gnu toolchain arm-none-eabi/12.2 rel1/bin/../lib/gcc/arm-none-eabi/12.2.1/thumb/v7+fp/hard\libg_nano.a(libc_a-memcmp.o)
                              ./src/ethercat/beckhoff/Src/bootmode.o (memcmp)
d:/program files/gcc/arm gnu toolchain arm-none-eabi/12.2 rel1/bin/../lib/gcc/arm-none-eabi/12.2.1/thumb/v7+fp/hard\libg_nano.a(libc_a-memset.o)
                              ./src/ethercat/beckhoff/Src/bootmode.o (memset)
d:/program files/gcc/arm gnu toolchain arm-none-eabi/12.2 rel1/bin/../lib/gcc/arm-none-eabi/12.2.1/thumb/v7+fp/hard\libg_nano.a(libc_a-localeconv.o)
                              d:/program files/gcc/arm gnu toolchain arm-none-eabi/12.2 rel1/bin/../lib/gcc/arm-none-eabi/12.2.1/thumb/v7+fp/hard\libg_nano.a(libc_a-nano-vfprintf_float.o) (_localeconv_r)
d:/program files/gcc/arm gnu toolchain arm-none-eabi/12.2 rel1/bin/../lib/gcc/arm-none-eabi/12.2.1/thumb/v7+fp/hard\libg_nano.a(libc_a-impure.o)
                              d:/program files/gcc/arm gnu toolchain arm-none-eabi/12.2 rel1/bin/../lib/gcc/arm-none-eabi/12.2.1/thumb/v7+fp/hard\libg_nano.a(libc_a-malloc.o) (_impure_ptr)
d:/program files/gcc/arm gnu toolchain arm-none-eabi/12.2 rel1/bin/../lib/gcc/arm-none-eabi/12.2.1/thumb/v7+fp/hard\libg_nano.a(libc_a-sbrkr.o)
                              d:/program files/gcc/arm gnu toolchain arm-none-eabi/12.2 rel1/bin/../lib/gcc/arm-none-eabi/12.2.1/thumb/v7+fp/hard\libg_nano.a(libc_a-mallocr.o) (_sbrk_r)
d:/program files/gcc/arm gnu toolchain arm-none-eabi/12.2 rel1/bin/../lib/gcc/arm-none-eabi/12.2.1/thumb/v7+fp/hard\libg_nano.a(libc_a-errno.o)
                              ./src/syscall.o (__errno)
d:/program files/gcc/arm gnu toolchain arm-none-eabi/12.2 rel1/bin/../lib/gcc/arm-none-eabi/12.2.1/thumb/v7+fp/hard\libg_nano.a(libc_a-lock.o)
                              d:/program files/gcc/arm gnu toolchain arm-none-eabi/12.2 rel1/bin/../lib/gcc/arm-none-eabi/12.2.1/thumb/v7+fp/hard\libg_nano.a(libc_a-mlock.o) (__retarget_lock_acquire_recursive)
d:/program files/gcc/arm gnu toolchain arm-none-eabi/12.2 rel1/bin/../lib/gcc/arm-none-eabi/12.2.1/thumb/v7+fp/hard\libg_nano.a(libc_a-memchr-stub.o)
                              d:/program files/gcc/arm gnu toolchain arm-none-eabi/12.2 rel1/bin/../lib/gcc/arm-none-eabi/12.2.1/thumb/v7+fp/hard\libg_nano.a(libc_a-nano-vfprintf_i.o) (memchr)
d:/program files/gcc/arm gnu toolchain arm-none-eabi/12.2 rel1/bin/../lib/gcc/arm-none-eabi/12.2.1/thumb/v7+fp/hard\libg_nano.a(libc_a-memcpy-stub.o)
                              ./src/ethercat/renesas/samplefoe.o (memcpy)
d:/program files/gcc/arm gnu toolchain arm-none-eabi/12.2 rel1/bin/../lib/gcc/arm-none-eabi/12.2.1/thumb/v7+fp/hard\libg_nano.a(libc_a-strlen.o)
                              ./src/ethercat/beckhoff/Src/objdef.o (strlen)
d:/program files/gcc/arm gnu toolchain arm-none-eabi/12.2 rel1/bin/../lib/gcc/arm-none-eabi/12.2.1/thumb/v7+fp/hard\libg_nano.a(libc_a-dtoa.o)
                              d:/program files/gcc/arm gnu toolchain arm-none-eabi/12.2 rel1/bin/../lib/gcc/arm-none-eabi/12.2.1/thumb/v7+fp/hard\libg_nano.a(libc_a-nano-vfprintf_float.o) (_dtoa_r)
d:/program files/gcc/arm gnu toolchain arm-none-eabi/12.2 rel1/bin/../lib/gcc/arm-none-eabi/12.2.1/thumb/v7+fp/hard\libg_nano.a(libc_a-freer.o)
                              d:/program files/gcc/arm gnu toolchain arm-none-eabi/12.2 rel1/bin/../lib/gcc/arm-none-eabi/12.2.1/thumb/v7+fp/hard\libg_nano.a(libc_a-malloc.o) (_free_r)
d:/program files/gcc/arm gnu toolchain arm-none-eabi/12.2 rel1/bin/../lib/gcc/arm-none-eabi/12.2.1/thumb/v7+fp/hard\libg_nano.a(libc_a-mprec.o)
                              d:/program files/gcc/arm gnu toolchain arm-none-eabi/12.2 rel1/bin/../lib/gcc/arm-none-eabi/12.2.1/thumb/v7+fp/hard\libg_nano.a(libc_a-dtoa.o) (_Balloc)
d:/program files/gcc/arm gnu toolchain arm-none-eabi/12.2 rel1/bin/../lib/gcc/arm-none-eabi/12.2.1/thumb/v7+fp/hard\libg_nano.a(libc_a-nano-vfprintf.o)
                              d:/program files/gcc/arm gnu toolchain arm-none-eabi/12.2 rel1/bin/../lib/gcc/arm-none-eabi/12.2.1/thumb/v7+fp/hard\libg_nano.a(libc_a-printf.o) (_vfprintf_r)
d:/program files/gcc/arm gnu toolchain arm-none-eabi/12.2 rel1/bin/../lib/gcc/arm-none-eabi/12.2.1/thumb/v7+fp/hard\libg_nano.a(libc_a-fflush.o)
                              d:/program files/gcc/arm gnu toolchain arm-none-eabi/12.2 rel1/bin/../lib/gcc/arm-none-eabi/12.2.1/thumb/v7+fp/hard\libg_nano.a(libc_a-wbuf.o) (_fflush_r)
d:/program files/gcc/arm gnu toolchain arm-none-eabi/12.2 rel1/bin/../lib/gcc/arm-none-eabi/12.2.1/thumb/v7+fp/hard\libg_nano.a(libc_a-findfp.o)
                              d:/program files/gcc/arm gnu toolchain arm-none-eabi/12.2 rel1/bin/../lib/gcc/arm-none-eabi/12.2.1/thumb/v7+fp/hard\libg_nano.a(libc_a-fflush.o) (__sglue)
d:/program files/gcc/arm gnu toolchain arm-none-eabi/12.2 rel1/bin/../lib/gcc/arm-none-eabi/12.2.1/thumb/v7+fp/hard\libg_nano.a(libc_a-fvwrite.o)
                              d:/program files/gcc/arm gnu toolchain arm-none-eabi/12.2 rel1/bin/../lib/gcc/arm-none-eabi/12.2.1/thumb/v7+fp/hard\libg_nano.a(libc_a-nano-vfprintf.o) (__sfvwrite_r)
d:/program files/gcc/arm gnu toolchain arm-none-eabi/12.2 rel1/bin/../lib/gcc/arm-none-eabi/12.2.1/thumb/v7+fp/hard\libg_nano.a(libc_a-fwalk.o)
                              d:/program files/gcc/arm gnu toolchain arm-none-eabi/12.2 rel1/bin/../lib/gcc/arm-none-eabi/12.2.1/thumb/v7+fp/hard\libg_nano.a(libc_a-fflush.o) (_fwalk_sglue)
d:/program files/gcc/arm gnu toolchain arm-none-eabi/12.2 rel1/bin/../lib/gcc/arm-none-eabi/12.2.1/thumb/v7+fp/hard\libg_nano.a(libc_a-makebuf.o)
                              d:/program files/gcc/arm gnu toolchain arm-none-eabi/12.2 rel1/bin/../lib/gcc/arm-none-eabi/12.2.1/thumb/v7+fp/hard\libg_nano.a(libc_a-wsetup.o) (__smakebuf_r)
d:/program files/gcc/arm gnu toolchain arm-none-eabi/12.2 rel1/bin/../lib/gcc/arm-none-eabi/12.2.1/thumb/v7+fp/hard\libg_nano.a(libc_a-stdio.o)
                              d:/program files/gcc/arm gnu toolchain arm-none-eabi/12.2 rel1/bin/../lib/gcc/arm-none-eabi/12.2.1/thumb/v7+fp/hard\libg_nano.a(libc_a-findfp.o) (__sread)
d:/program files/gcc/arm gnu toolchain arm-none-eabi/12.2 rel1/bin/../lib/gcc/arm-none-eabi/12.2.1/thumb/v7+fp/hard\libg_nano.a(libc_a-memmove.o)
                              d:/program files/gcc/arm gnu toolchain arm-none-eabi/12.2 rel1/bin/../lib/gcc/arm-none-eabi/12.2.1/thumb/v7+fp/hard\libg_nano.a(libc_a-fvwrite.o) (memmove)
d:/program files/gcc/arm gnu toolchain arm-none-eabi/12.2 rel1/bin/../lib/gcc/arm-none-eabi/12.2.1/thumb/v7+fp/hard\libg_nano.a(libc_a-locale.o)
                              d:/program files/gcc/arm gnu toolchain arm-none-eabi/12.2 rel1/bin/../lib/gcc/arm-none-eabi/12.2.1/thumb/v7+fp/hard\libg_nano.a(libc_a-localeconv.o) (__global_locale)
d:/program files/gcc/arm gnu toolchain arm-none-eabi/12.2 rel1/bin/../lib/gcc/arm-none-eabi/12.2.1/thumb/v7+fp/hard\libg_nano.a(libc_a-closer.o)
                              d:/program files/gcc/arm gnu toolchain arm-none-eabi/12.2 rel1/bin/../lib/gcc/arm-none-eabi/12.2.1/thumb/v7+fp/hard\libg_nano.a(libc_a-stdio.o) (_close_r)
d:/program files/gcc/arm gnu toolchain arm-none-eabi/12.2 rel1/bin/../lib/gcc/arm-none-eabi/12.2.1/thumb/v7+fp/hard\libg_nano.a(libc_a-reent.o)
                              d:/program files/gcc/arm gnu toolchain arm-none-eabi/12.2 rel1/bin/../lib/gcc/arm-none-eabi/12.2.1/thumb/v7+fp/hard\libg_nano.a(libc_a-sbrkr.o) (errno)
d:/program files/gcc/arm gnu toolchain arm-none-eabi/12.2 rel1/bin/../lib/gcc/arm-none-eabi/12.2.1/thumb/v7+fp/hard\libg_nano.a(libc_a-fstatr.o)
                              d:/program files/gcc/arm gnu toolchain arm-none-eabi/12.2 rel1/bin/../lib/gcc/arm-none-eabi/12.2.1/thumb/v7+fp/hard\libg_nano.a(libc_a-makebuf.o) (_fstat_r)
d:/program files/gcc/arm gnu toolchain arm-none-eabi/12.2 rel1/bin/../lib/gcc/arm-none-eabi/12.2.1/thumb/v7+fp/hard\libg_nano.a(libc_a-isattyr.o)
                              d:/program files/gcc/arm gnu toolchain arm-none-eabi/12.2 rel1/bin/../lib/gcc/arm-none-eabi/12.2.1/thumb/v7+fp/hard\libg_nano.a(libc_a-makebuf.o) (_isatty_r)
d:/program files/gcc/arm gnu toolchain arm-none-eabi/12.2 rel1/bin/../lib/gcc/arm-none-eabi/12.2.1/thumb/v7+fp/hard\libg_nano.a(libc_a-lseekr.o)
                              d:/program files/gcc/arm gnu toolchain arm-none-eabi/12.2 rel1/bin/../lib/gcc/arm-none-eabi/12.2.1/thumb/v7+fp/hard\libg_nano.a(libc_a-stdio.o) (_lseek_r)
d:/program files/gcc/arm gnu toolchain arm-none-eabi/12.2 rel1/bin/../lib/gcc/arm-none-eabi/12.2.1/thumb/v7+fp/hard\libg_nano.a(libc_a-readr.o)
                              d:/program files/gcc/arm gnu toolchain arm-none-eabi/12.2 rel1/bin/../lib/gcc/arm-none-eabi/12.2.1/thumb/v7+fp/hard\libg_nano.a(libc_a-stdio.o) (_read_r)
d:/program files/gcc/arm gnu toolchain arm-none-eabi/12.2 rel1/bin/../lib/gcc/arm-none-eabi/12.2.1/thumb/v7+fp/hard\libg_nano.a(libc_a-writer.o)
                              d:/program files/gcc/arm gnu toolchain arm-none-eabi/12.2 rel1/bin/../lib/gcc/arm-none-eabi/12.2.1/thumb/v7+fp/hard\libg_nano.a(libc_a-stdio.o) (_write_r)
d:/program files/gcc/arm gnu toolchain arm-none-eabi/12.2 rel1/bin/../lib/gcc/arm-none-eabi/12.2.1/thumb/v7+fp/hard\libg_nano.a(libc_a-strcmp.o)
                              d:/program files/gcc/arm gnu toolchain arm-none-eabi/12.2 rel1/bin/../lib/gcc/arm-none-eabi/12.2.1/thumb/v7+fp/hard\libg_nano.a(libc_a-locale.o) (strcmp)
d:/program files/gcc/arm gnu toolchain arm-none-eabi/12.2 rel1/bin/../lib/gcc/arm-none-eabi/12.2.1/thumb/v7+fp/hard\libg_nano.a(libc_a-assert.o)
                              d:/program files/gcc/arm gnu toolchain arm-none-eabi/12.2 rel1/bin/../lib/gcc/arm-none-eabi/12.2.1/thumb/v7+fp/hard\libg_nano.a(libc_a-dtoa.o) (__assert_func)
d:/program files/gcc/arm gnu toolchain arm-none-eabi/12.2 rel1/bin/../lib/gcc/arm-none-eabi/12.2.1/thumb/v7+fp/hard\libg_nano.a(libc_a-callocr.o)
                              d:/program files/gcc/arm gnu toolchain arm-none-eabi/12.2 rel1/bin/../lib/gcc/arm-none-eabi/12.2.1/thumb/v7+fp/hard\libg_nano.a(libc_a-mprec.o) (_calloc_r)
d:/program files/gcc/arm gnu toolchain arm-none-eabi/12.2 rel1/bin/../lib/gcc/arm-none-eabi/12.2.1/thumb/v7+fp/hard\libg_nano.a(libc_a-mbtowc_r.o)
                              d:/program files/gcc/arm gnu toolchain arm-none-eabi/12.2 rel1/bin/../lib/gcc/arm-none-eabi/12.2.1/thumb/v7+fp/hard\libg_nano.a(libc_a-locale.o) (__ascii_mbtowc)
d:/program files/gcc/arm gnu toolchain arm-none-eabi/12.2 rel1/bin/../lib/gcc/arm-none-eabi/12.2.1/thumb/v7+fp/hard\libg_nano.a(libc_a-reallocr.o)
                              d:/program files/gcc/arm gnu toolchain arm-none-eabi/12.2 rel1/bin/../lib/gcc/arm-none-eabi/12.2.1/thumb/v7+fp/hard\libg_nano.a(libc_a-fvwrite.o) (_realloc_r)
d:/program files/gcc/arm gnu toolchain arm-none-eabi/12.2 rel1/bin/../lib/gcc/arm-none-eabi/12.2.1/thumb/v7+fp/hard\libg_nano.a(libc_a-wctomb_r.o)
                              d:/program files/gcc/arm gnu toolchain arm-none-eabi/12.2 rel1/bin/../lib/gcc/arm-none-eabi/12.2.1/thumb/v7+fp/hard\libg_nano.a(libc_a-locale.o) (__ascii_wctomb)
d:/program files/gcc/arm gnu toolchain arm-none-eabi/12.2 rel1/bin/../lib/gcc/arm-none-eabi/12.2.1/thumb/v7+fp/hard\libg_nano.a(libc_a-ctype_.o)
                              d:/program files/gcc/arm gnu toolchain arm-none-eabi/12.2 rel1/bin/../lib/gcc/arm-none-eabi/12.2.1/thumb/v7+fp/hard\libg_nano.a(libc_a-locale.o) (_ctype_)
d:/program files/gcc/arm gnu toolchain arm-none-eabi/12.2 rel1/bin/../lib/gcc/arm-none-eabi/12.2.1/thumb/v7+fp/hard\libg_nano.a(libc_a-fprintf.o)
                              d:/program files/gcc/arm gnu toolchain arm-none-eabi/12.2 rel1/bin/../lib/gcc/arm-none-eabi/12.2.1/thumb/v7+fp/hard\libg_nano.a(libc_a-assert.o) (fiprintf)
d:/program files/gcc/arm gnu toolchain arm-none-eabi/12.2 rel1/bin/../lib/gcc/arm-none-eabi/12.2.1/thumb/v7+fp/hard\libg_nano.a(libc_a-abort.o)
                              d:/program files/gcc/arm gnu toolchain arm-none-eabi/12.2 rel1/bin/../lib/gcc/arm-none-eabi/12.2.1/thumb/v7+fp/hard\libg_nano.a(libc_a-assert.o) (abort)
d:/program files/gcc/arm gnu toolchain arm-none-eabi/12.2 rel1/bin/../lib/gcc/arm-none-eabi/12.2.1/thumb/v7+fp/hard\libg_nano.a(libc_a-msizer.o)
                              d:/program files/gcc/arm gnu toolchain arm-none-eabi/12.2 rel1/bin/../lib/gcc/arm-none-eabi/12.2.1/thumb/v7+fp/hard\libg_nano.a(libc_a-reallocr.o) (_malloc_usable_size_r)
d:/program files/gcc/arm gnu toolchain arm-none-eabi/12.2 rel1/bin/../lib/gcc/arm-none-eabi/12.2.1/thumb/v7+fp/hard\libg_nano.a(libc_a-signal.o)
                              d:/program files/gcc/arm gnu toolchain arm-none-eabi/12.2 rel1/bin/../lib/gcc/arm-none-eabi/12.2.1/thumb/v7+fp/hard\libg_nano.a(libc_a-abort.o) (raise)
d:/program files/gcc/arm gnu toolchain arm-none-eabi/12.2 rel1/bin/../lib/gcc/arm-none-eabi/12.2.1/thumb/v7+fp/hard\libg_nano.a(libc_a-signalr.o)
                              d:/program files/gcc/arm gnu toolchain arm-none-eabi/12.2 rel1/bin/../lib/gcc/arm-none-eabi/12.2.1/thumb/v7+fp/hard\libg_nano.a(libc_a-signal.o) (_kill_r)
d:/program files/gcc/arm gnu toolchain arm-none-eabi/12.2 rel1/bin/../lib/gcc/arm-none-eabi/12.2.1/thumb/v7+fp/hard\libgcc.a(_udivsi3.o)
                              d:/program files/gcc/arm gnu toolchain arm-none-eabi/12.2 rel1/bin/../lib/gcc/arm-none-eabi/12.2.1/thumb/v7+fp/hard\libg_nano.a(libc_a-dtoa.o) (__aeabi_uidiv)
d:/program files/gcc/arm gnu toolchain arm-none-eabi/12.2 rel1/bin/../lib/gcc/arm-none-eabi/12.2.1/thumb/v7+fp/hard\libgcc.a(_divsi3.o)
                              d:/program files/gcc/arm gnu toolchain arm-none-eabi/12.2 rel1/bin/../lib/gcc/arm-none-eabi/12.2.1/thumb/v7+fp/hard\libg_nano.a(libc_a-fvwrite.o) (__aeabi_idiv)

Discarded input sections

 .text          0x00000000        0x0 ./src/ethercat/renesas/sampleappl.o
 .data          0x00000000        0x0 ./src/ethercat/renesas/sampleappl.o
 .bss           0x00000000        0x0 ./src/ethercat/renesas/sampleappl.o
 .text          0x00000000        0x0 ./src/ethercat/renesas/samplecia402.o
 .data          0x00000000        0x0 ./src/ethercat/renesas/samplecia402.o
 .bss           0x00000000        0x0 ./src/ethercat/renesas/samplecia402.o
 .text.CiA402_LocalError
                0x00000000       0x3e ./src/ethercat/renesas/samplecia402.o
 .text          0x00000000        0x0 ./src/ethercat/renesas/samplefoe.o
 .data          0x00000000        0x0 ./src/ethercat/renesas/samplefoe.o
 .bss           0x00000000        0x0 ./src/ethercat/renesas/samplefoe.o
 .rodata.aFilePassword
                0x00000000        0x4 ./src/ethercat/renesas/samplefoe.o
 .rodata.aFileNameHeader
                0x00000000       0x16 ./src/ethercat/renesas/samplefoe.o
 .bss.ReadDataAddr
                0x00000000        0x4 ./src/ethercat/renesas/samplefoe.o
 .text          0x00000000        0x0 ./src/ethercat/renesas/sampleios.o
 .data          0x00000000        0x0 ./src/ethercat/renesas/sampleios.o
 .bss           0x00000000        0x0 ./src/ethercat/renesas/sampleios.o
 .text          0x00000000        0x0 ./src/ethercat/renesas/samplesemi.o
 .data          0x00000000        0x0 ./src/ethercat/renesas/samplesemi.o
 .bss           0x00000000        0x0 ./src/ethercat/renesas/samplesemi.o
 .debug_info    0x00000000       0x81 ./src/ethercat/renesas/samplesemi.o
 .debug_abbrev  0x00000000       0x26 ./src/ethercat/renesas/samplesemi.o
 .debug_aranges
                0x00000000       0x18 ./src/ethercat/renesas/samplesemi.o
 .debug_line    0x00000000       0x45 ./src/ethercat/renesas/samplesemi.o
 .debug_str     0x00000000      0x216 ./src/ethercat/renesas/samplesemi.o
 .comment       0x00000000       0x46 ./src/ethercat/renesas/samplesemi.o
 .ARM.attributes
                0x00000000       0x39 ./src/ethercat/renesas/samplesemi.o
 .text          0x00000000        0x0 ./src/ethercat/beckhoff/Src/bootmode.o
 .data          0x00000000        0x0 ./src/ethercat/beckhoff/Src/bootmode.o
 .bss           0x00000000        0x0 ./src/ethercat/beckhoff/Src/bootmode.o
 .text.test_byte_array
                0x00000000        0x2 ./src/ethercat/beckhoff/Src/bootmode.o
 .text          0x00000000        0x0 ./src/ethercat/beckhoff/Src/cia402appl.o
 .data          0x00000000        0x0 ./src/ethercat/beckhoff/Src/cia402appl.o
 .bss           0x00000000        0x0 ./src/ethercat/beckhoff/Src/cia402appl.o
 .text.CiA402_TransitionAction
                0x00000000        0xe ./src/ethercat/beckhoff/Src/cia402appl.o
 .text          0x00000000        0x0 ./src/ethercat/beckhoff/Src/coeappl.o
 .data          0x00000000        0x0 ./src/ethercat/beckhoff/Src/coeappl.o
 .bss           0x00000000        0x0 ./src/ethercat/beckhoff/Src/coeappl.o
 .text          0x00000000        0x0 ./src/ethercat/beckhoff/Src/ecatappl.o
 .data          0x00000000        0x0 ./src/ethercat/beckhoff/Src/ecatappl.o
 .bss           0x00000000        0x0 ./src/ethercat/beckhoff/Src/ecatappl.o
 .text.ESC_EepromWriteCRC
                0x00000000       0x70 ./src/ethercat/beckhoff/Src/ecatappl.o
 .bss.bEcatWaitForInputUpdate
                0x00000000        0x1 ./src/ethercat/beckhoff/Src/ecatappl.o
 .text          0x00000000        0x0 ./src/ethercat/beckhoff/Src/ecatcoe.o
 .data          0x00000000        0x0 ./src/ethercat/beckhoff/Src/ecatcoe.o
 .bss           0x00000000        0x0 ./src/ethercat/beckhoff/Src/ecatcoe.o
 .text          0x00000000        0x0 ./src/ethercat/beckhoff/Src/ecatfoe.o
 .data          0x00000000        0x0 ./src/ethercat/beckhoff/Src/ecatfoe.o
 .bss           0x00000000        0x0 ./src/ethercat/beckhoff/Src/ecatfoe.o
 .text          0x00000000        0x0 ./src/ethercat/beckhoff/Src/ecatslv.o
 .data          0x00000000        0x0 ./src/ethercat/beckhoff/Src/ecatslv.o
 .bss           0x00000000        0x0 ./src/ethercat/beckhoff/Src/ecatslv.o
 .text.BackToInitTransition
                0x00000000        0xe ./src/ethercat/beckhoff/Src/ecatslv.o
 .text.ECAT_StateChange
                0x00000000      0x200 ./src/ethercat/beckhoff/Src/ecatslv.o
 .text          0x00000000        0x0 ./src/ethercat/beckhoff/Src/foeappl.o
 .data          0x00000000        0x0 ./src/ethercat/beckhoff/Src/foeappl.o
 .bss           0x00000000        0x0 ./src/ethercat/beckhoff/Src/foeappl.o
 .text          0x00000000        0x0 ./src/ethercat/beckhoff/Src/mailbox.o
 .data          0x00000000        0x0 ./src/ethercat/beckhoff/Src/mailbox.o
 .bss           0x00000000        0x0 ./src/ethercat/beckhoff/Src/mailbox.o
 .text          0x00000000        0x0 ./src/ethercat/beckhoff/Src/objdef.o
 .data          0x00000000        0x0 ./src/ethercat/beckhoff/Src/objdef.o
 .bss           0x00000000        0x0 ./src/ethercat/beckhoff/Src/objdef.o
 .text          0x00000000        0x0 ./src/ethercat/beckhoff/Src/sdoserv.o
 .data          0x00000000        0x0 ./src/ethercat/beckhoff/Src/sdoserv.o
 .bss           0x00000000        0x0 ./src/ethercat/beckhoff/Src/sdoserv.o
 .text          0x00000000        0x0 ./src/common/app_config.o
 .data          0x00000000        0x0 ./src/common/app_config.o
 .bss           0x00000000        0x0 ./src/common/app_config.o
 .text.AppConfig_GetInfo
                0x00000000       0x34 ./src/common/app_config.o
 .text.AppConfig_IsEnabled
                0x00000000        0xa ./src/common/app_config.o
 .text.AppConfig_IsDualBank
                0x00000000       0x18 ./src/common/app_config.o
 .text.AppConfig_GetBankCount
                0x00000000       0x16 ./src/common/app_config.o
 .text.AppConfig_GetBankAddress
                0x00000000       0x2c ./src/common/app_config.o
 .text.AppConfig_GetEnabledCount
                0x00000000        0x4 ./src/common/app_config.o
 .rodata.AppConfig_Init.str1.4
                0x00000000       0x43 ./src/common/app_config.o
 .text.AppConfig_Init
                0x00000000       0x22 ./src/common/app_config.o
 .text.AppConfig_GetNextEnabledApp
                0x00000000       0x16 ./src/common/app_config.o
 .text.AppConfig_IsValidAppId
                0x00000000        0xe ./src/common/app_config.o
 .rodata.app_config_table
                0x00000000       0x10 ./src/common/app_config.o
 .debug_info    0x00000000      0x47d ./src/common/app_config.o
 .debug_abbrev  0x00000000      0x1f3 ./src/common/app_config.o
 .debug_loclists
                0x00000000      0x165 ./src/common/app_config.o
 .debug_aranges
                0x00000000       0x60 ./src/common/app_config.o
 .debug_rnglists
                0x00000000       0x43 ./src/common/app_config.o
 .debug_line    0x00000000      0x3e8 ./src/common/app_config.o
 .debug_str     0x00000000      0x3d1 ./src/common/app_config.o
 .comment       0x00000000       0x46 ./src/common/app_config.o
 .debug_frame   0x00000000       0xdc ./src/common/app_config.o
 .ARM.attributes
                0x00000000       0x39 ./src/common/app_config.o
 .text          0x00000000        0x0 ./src/common/bank_config.o
 .data          0x00000000        0x0 ./src/common/bank_config.o
 .bss           0x00000000        0x0 ./src/common/bank_config.o
 .rodata.BankConfig_Init.str1.4
                0x00000000       0x7d ./src/common/bank_config.o
 .text.BankConfig_Init
                0x00000000       0x88 ./src/common/bank_config.o
 .text.BankConfig_GetCurrentBank
                0x00000000       0x12 ./src/common/bank_config.o
 .text.BankConfig_GetTargetBank
                0x00000000       0x24 ./src/common/bank_config.o
 .text.BankConfig_GetStatus
                0x00000000       0x4e ./src/common/bank_config.o
 .text.BankConfig_IsBankValid
                0x00000000       0x2a ./src/common/bank_config.o
 .rodata.BankConfig_SelectNextBank.str1.4
                0x00000000       0x29 ./src/common/bank_config.o
 .text.BankConfig_SelectNextBank
                0x00000000       0x64 ./src/common/bank_config.o
 .rodata.BankConfig_SetTargetBank.str1.4
                0x00000000       0xdc ./src/common/bank_config.o
 .text.BankConfig_SetTargetBank
                0x00000000       0xb0 ./src/common/bank_config.o
 .rodata.BankConfig_SetBankValid.str1.4
                0x00000000       0x22 ./src/common/bank_config.o
 .text.BankConfig_SetBankValid
                0x00000000       0x6e ./src/common/bank_config.o
 .rodata.BankConfig_SwitchBank.str1.4
                0x00000000       0x5d ./src/common/bank_config.o
 .text.BankConfig_SwitchBank
                0x00000000       0x84 ./src/common/bank_config.o
 .text.BankConfig_IsValidBankId
                0x00000000        0xa ./src/common/bank_config.o
 .data.bank_valid_table
                0x00000000        0xa ./src/common/bank_config.o
 .debug_info    0x00000000      0x94f ./src/common/bank_config.o
 .debug_abbrev  0x00000000      0x1cd ./src/common/bank_config.o
 .debug_loclists
                0x00000000      0x1d6 ./src/common/bank_config.o
 .debug_aranges
                0x00000000       0x68 ./src/common/bank_config.o
 .debug_rnglists
                0x00000000       0x64 ./src/common/bank_config.o
 .debug_line    0x00000000      0x56b ./src/common/bank_config.o
 .debug_str     0x00000000      0x504 ./src/common/bank_config.o
 .comment       0x00000000       0x46 ./src/common/bank_config.o
 .debug_frame   0x00000000      0x138 ./src/common/bank_config.o
 .ARM.attributes
                0x00000000       0x39 ./src/common/bank_config.o
 .text          0x00000000        0x0 ./src/common/bank_detection.o
 .data          0x00000000        0x0 ./src/common/bank_detection.o
 .bss           0x00000000        0x0 ./src/common/bank_detection.o
 .text          0x00000000        0x0 ./src/common/boot_config_cmd.o
 .data          0x00000000        0x0 ./src/common/boot_config_cmd.o
 .bss           0x00000000        0x0 ./src/common/boot_config_cmd.o
 .rodata.BootConfig_DisableVersionCheck.str1.4
                0x00000000       0x9b ./src/common/boot_config_cmd.o
 .text.BootConfig_DisableVersionCheck
                0x00000000       0x5e ./src/common/boot_config_cmd.o
 .rodata.BootConfig_EnableVersionCheck.str1.4
                0x00000000       0x51 ./src/common/boot_config_cmd.o
 .text.BootConfig_EnableVersionCheck
                0x00000000       0x5e ./src/common/boot_config_cmd.o
 .rodata.BootConfig_SetTargetBank.str1.4
                0x00000000       0x3f ./src/common/boot_config_cmd.o
 .text.BootConfig_SetTargetBank
                0x00000000       0x6a ./src/common/boot_config_cmd.o
 .rodata.BootConfig_GetCurrentConfig.str1.4
                0x00000000       0xc8 ./src/common/boot_config_cmd.o
 .text.BootConfig_GetCurrentConfig
                0x00000000       0xa6 ./src/common/boot_config_cmd.o
 .rodata.BootConfig_ProcessCommand.str1.4
                0x00000000       0x84 ./src/common/boot_config_cmd.o
 .text.BootConfig_ProcessCommand
                0x00000000       0x92 ./src/common/boot_config_cmd.o
 .debug_info    0x00000000      0x783 ./src/common/boot_config_cmd.o
 .debug_abbrev  0x00000000      0x1a8 ./src/common/boot_config_cmd.o
 .debug_loclists
                0x00000000       0xbf ./src/common/boot_config_cmd.o
 .debug_aranges
                0x00000000       0x40 ./src/common/boot_config_cmd.o
 .debug_rnglists
                0x00000000       0x2d ./src/common/boot_config_cmd.o
 .debug_line    0x00000000      0x46c ./src/common/boot_config_cmd.o
 .debug_str     0x00000000      0x4f5 ./src/common/boot_config_cmd.o
 .comment       0x00000000       0x46 ./src/common/boot_config_cmd.o
 .debug_frame   0x00000000       0xb8 ./src/common/boot_config_cmd.o
 .ARM.attributes
                0x00000000       0x39 ./src/common/boot_config_cmd.o
 .text          0x00000000        0x0 ./src/common/bsp_r52_global_counter.o
 .data          0x00000000        0x0 ./src/common/bsp_r52_global_counter.o
 .bss           0x00000000        0x0 ./src/common/bsp_r52_global_counter.o
 .text          0x00000000        0x0 ./src/common/circular_queue.o
 .data          0x00000000        0x0 ./src/common/circular_queue.o
 .bss           0x00000000        0x0 ./src/common/circular_queue.o
 .text.Queue_isEmpty
                0x00000000       0x16 ./src/common/circular_queue.o
 .text.Queue_isFull
                0x00000000       0x32 ./src/common/circular_queue.o
 .text          0x00000000        0x0 ./src/common/crc32_table.o
 .data          0x00000000        0x0 ./src/common/crc32_table.o
 .bss           0x00000000        0x0 ./src/common/crc32_table.o
 .text.CRC_CalculateBytes
                0x00000000       0x52 ./src/common/crc32_table.o
 .text.CRC_CalculateFast
                0x00000000       0x88 ./src/common/crc32_table.o
 .text.CRC_CalculateEx
                0x00000000       0x68 ./src/common/crc32_table.o
 .bss.g_crc_default_initialized
                0x00000000        0x4 ./src/common/crc32_table.o
 .bss.g_crc_default_context
                0x00000000      0x408 ./src/common/crc32_table.o
 .text          0x00000000        0x0 ./src/common/loader_table_manager.o
 .data          0x00000000        0x0 ./src/common/loader_table_manager.o
 .bss           0x00000000        0x0 ./src/common/loader_table_manager.o
 .text.LoaderTableManager_GetEntry
                0x00000000       0x70 ./src/common/loader_table_manager.o
 .rodata.LoaderTableManager_EnableEntry.str1.4
                0x00000000       0x30 ./src/common/loader_table_manager.o
 .text.LoaderTableManager_EnableEntry
                0x00000000       0x16 ./src/common/loader_table_manager.o
 .rodata.LoaderTableManager_DisableEntry.str1.4
                0x00000000       0x31 ./src/common/loader_table_manager.o
 .text.LoaderTableManager_DisableEntry
                0x00000000       0x16 ./src/common/loader_table_manager.o
 .rodata.LoaderTableManager_DisableAll.str1.4
                0x00000000       0x28 ./src/common/loader_table_manager.o
 .text.LoaderTableManager_DisableAll
                0x00000000       0x10 ./src/common/loader_table_manager.o
 .rodata.LoaderTableManager_SelectEntry.str1.4
                0x00000000       0xe9 ./src/common/loader_table_manager.o
 .text.LoaderTableManager_SelectEntry
                0x00000000       0x7c ./src/common/loader_table_manager.o
 .text.LoaderTableManager_GetEnabledCount
                0x00000000       0x20 ./src/common/loader_table_manager.o
 .text.LoaderTableManager_IsEntryValid
                0x00000000       0x36 ./src/common/loader_table_manager.o
 .rodata.LoaderTableManager_PrintInfo.str1.4
                0x00000000       0x92 ./src/common/loader_table_manager.o
 .text.LoaderTableManager_PrintInfo
                0x00000000       0x7a ./src/common/loader_table_manager.o
 .rodata.LoaderTableManager_Init.str1.4
                0x00000000       0x28 ./src/common/loader_table_manager.o
 .text.LoaderTableManager_Init
                0x00000000       0x14 ./src/common/loader_table_manager.o
 .debug_info    0x00000000      0x59b ./src/common/loader_table_manager.o
 .debug_abbrev  0x00000000      0x1a9 ./src/common/loader_table_manager.o
 .debug_loclists
                0x00000000      0x1aa ./src/common/loader_table_manager.o
 .debug_aranges
                0x00000000       0x60 ./src/common/loader_table_manager.o
 .debug_rnglists
                0x00000000       0x5b ./src/common/loader_table_manager.o
 .debug_line    0x00000000      0x3eb ./src/common/loader_table_manager.o
 .debug_str     0x00000000      0x3fd ./src/common/loader_table_manager.o
 .comment       0x00000000       0x46 ./src/common/loader_table_manager.o
 .debug_frame   0x00000000      0x104 ./src/common/loader_table_manager.o
 .ARM.attributes
                0x00000000       0x39 ./src/common/loader_table_manager.o
 .text          0x00000000        0x0 ./src/common/sbl_boot_params.o
 .data          0x00000000        0x0 ./src/common/sbl_boot_params.o
 .bss           0x00000000        0x0 ./src/common/sbl_boot_params.o
 .text.SblBootParams_GetTargetApp
                0x00000000       0x32 ./src/common/sbl_boot_params.o
 .rodata.SblBootParams_SetTargetApp.str1.4
                0x00000000       0x8d ./src/common/sbl_boot_params.o
 .text.SblBootParams_SetTargetApp
                0x00000000       0x6e ./src/common/sbl_boot_params.o
 .text.SblBootParams_GetCurrentVersion
                0x00000000       0x32 ./src/common/sbl_boot_params.o
 .text          0x00000000        0x0 ./src/common/sbl_params.o
 .data          0x00000000        0x0 ./src/common/sbl_params.o
 .bss           0x00000000        0x0 ./src/common/sbl_params.o
 .rodata.checkAndUpdataBootBankParams.str1.4
                0x00000000      0x108 ./src/common/sbl_params.o
 .text.checkAndUpdataBootBankParams
                0x00000000       0xdc ./src/common/sbl_params.o
 .rodata.sblCheckBootParams.str1.4
                0x00000000      0x1c0 ./src/common/sbl_params.o
 .text.sblCheckBootParams
                0x00000000      0x232 ./src/common/sbl_params.o
 .debug_info    0x00000000      0x821 ./src/common/sbl_params.o
 .debug_abbrev  0x00000000      0x1b9 ./src/common/sbl_params.o
 .debug_loclists
                0x00000000      0x245 ./src/common/sbl_params.o
 .debug_aranges
                0x00000000       0x28 ./src/common/sbl_params.o
 .debug_rnglists
                0x00000000       0x41 ./src/common/sbl_params.o
 .debug_line    0x00000000      0x509 ./src/common/sbl_params.o
 .debug_str     0x00000000      0x523 ./src/common/sbl_params.o
 .comment       0x00000000       0x46 ./src/common/sbl_params.o
 .debug_frame   0x00000000       0x5c ./src/common/sbl_params.o
 .ARM.attributes
                0x00000000       0x39 ./src/common/sbl_params.o
 .text          0x00000000        0x0 ./src/hal_entry.o
 .data          0x00000000        0x0 ./src/hal_entry.o
 .bss           0x00000000        0x0 ./src/hal_entry.o
 .text.handle_error
                0x00000000        0x2 ./src/hal_entry.o
 .text          0x00000000        0x0 ./src/syscall.o
 .data          0x00000000        0x0 ./src/syscall.o
 .bss           0x00000000        0x0 ./src/syscall.o
 .text.initialise_monitor_handles
                0x00000000        0x2 ./src/syscall.o
 .text._write   0x00000000       0x1a ./src/syscall.o
 .text._open    0x00000000        0xa ./src/syscall.o
 .text._wait    0x00000000       0x10 ./src/syscall.o
 .text._unlink  0x00000000       0x10 ./src/syscall.o
 .text._times   0x00000000        0x6 ./src/syscall.o
 .text._stat    0x00000000        0xa ./src/syscall.o
 .text._link    0x00000000       0x10 ./src/syscall.o
 .text._fork    0x00000000       0x10 ./src/syscall.o
 .text._execve  0x00000000       0x10 ./src/syscall.o
 .data.environ  0x00000000        0x4 ./src/syscall.o
 .bss.__env     0x00000000        0x4 ./src/syscall.o
 .text          0x00000000        0x0 ./rzn_gen/common_data.o
 .data          0x00000000        0x0 ./rzn_gen/common_data.o
 .bss           0x00000000        0x0 ./rzn_gen/common_data.o
 .text.g_common_init
                0x00000000        0x2 ./rzn_gen/common_data.o
 .text          0x00000000        0x0 ./rzn_gen/hal_data.o
 .data          0x00000000        0x0 ./rzn_gen/hal_data.o
 .bss           0x00000000        0x0 ./rzn_gen/hal_data.o
 .text.g_hal_init
                0x00000000        0x8 ./rzn_gen/hal_data.o
 .rodata.g_qspi0
                0x00000000        0xc ./rzn_gen/hal_data.o
 .text          0x00000000        0x0 ./rzn_gen/main.o
 .data          0x00000000        0x0 ./rzn_gen/main.o
 .bss           0x00000000        0x0 ./rzn_gen/main.o
 .text          0x00000000        0x0 ./rzn_gen/pin_data.o
 .data          0x00000000        0x0 ./rzn_gen/pin_data.o
 .bss           0x00000000        0x0 ./rzn_gen/pin_data.o
 .text          0x00000000        0x0 ./rzn_gen/vector_data.o
 .data          0x00000000        0x0 ./rzn_gen/vector_data.o
 .bss           0x00000000        0x0 ./rzn_gen/vector_data.o
 .text          0x00000000        0x0 ./rzn/fsp/src/rm_ethercat_ssc_port/rm_ethercat_ssc_port.o
 .data          0x00000000        0x0 ./rzn/fsp/src/rm_ethercat_ssc_port/rm_ethercat_ssc_port.o
 .bss           0x00000000        0x0 ./rzn/fsp/src/rm_ethercat_ssc_port/rm_ethercat_ssc_port.o
 .text.PDI_Isr  0x00000000        0x2 ./rzn/fsp/src/rm_ethercat_ssc_port/rm_ethercat_ssc_port.o
 .text.Sync0_Isr
                0x00000000        0x2 ./rzn/fsp/src/rm_ethercat_ssc_port/rm_ethercat_ssc_port.o
 .text.Sync1_Isr
                0x00000000        0x2 ./rzn/fsp/src/rm_ethercat_ssc_port/rm_ethercat_ssc_port.o
 .text.HW_Release
                0x00000000        0x2 ./rzn/fsp/src/rm_ethercat_ssc_port/rm_ethercat_ssc_port.o
 .rodata.g_ioport
                0x00000000        0xc ./rzn/fsp/src/rm_ethercat_ssc_port/rm_ethercat_ssc_port.o
 .text          0x00000000        0x0 ./rzn/fsp/src/r_xspi_qspi/r_xspi_qspi.o
 .data          0x00000000        0x0 ./rzn/fsp/src/r_xspi_qspi/r_xspi_qspi.o
 .bss           0x00000000        0x0 ./rzn/fsp/src/r_xspi_qspi/r_xspi_qspi.o
 .text.R_XSPI_QSPI_DirectWrite
                0x00000000        0x4 ./rzn/fsp/src/r_xspi_qspi/r_xspi_qspi.o
 .text.R_XSPI_QSPI_DirectRead
                0x00000000        0x4 ./rzn/fsp/src/r_xspi_qspi/r_xspi_qspi.o
 .text.R_XSPI_QSPI_BankSet
                0x00000000        0x4 ./rzn/fsp/src/r_xspi_qspi/r_xspi_qspi.o
 .text.R_XSPI_QSPI_SpiProtocolSet
                0x00000000       0x1c ./rzn/fsp/src/r_xspi_qspi/r_xspi_qspi.o
 .text.R_XSPI_QSPI_AutoCalibrate
                0x00000000        0x4 ./rzn/fsp/src/r_xspi_qspi/r_xspi_qspi.o
 .text.R_XSPI_QSPI_XipEnter
                0x00000000       0x6e ./rzn/fsp/src/r_xspi_qspi/r_xspi_qspi.o
 .text.R_XSPI_QSPI_DirectTransfer
                0x00000000        0xa ./rzn/fsp/src/r_xspi_qspi/r_xspi_qspi.o
 .text.R_XSPI_QSPI_Close
                0x00000000       0x42 ./rzn/fsp/src/r_xspi_qspi/r_xspi_qspi.o
 .text.R_XSPI_QSPI_XipExit
                0x00000000       0x68 ./rzn/fsp/src/r_xspi_qspi/r_xspi_qspi.o
 .rodata.g_spi_flash_on_xspi_qspi
                0x00000000       0x34 ./rzn/fsp/src/r_xspi_qspi/r_xspi_qspi.o
 .text          0x00000000        0x0 ./rzn/fsp/src/r_sci_uart/r_sci_uart.o
 .data          0x00000000        0x0 ./rzn/fsp/src/r_sci_uart/r_sci_uart.o
 .bss           0x00000000        0x0 ./rzn/fsp/src/r_sci_uart/r_sci_uart.o
 .text.R_SCI_UART_BaudCalculate
                0x00000000      0x3ee ./rzn/fsp/src/r_sci_uart/r_sci_uart.o
 .text.sci_uart_tx_dmac_callback
                0x00000000       0x52 ./rzn/fsp/src/r_sci_uart/r_sci_uart.o
 .text.sci_uart_rx_dmac_callback
                0x00000000       0x52 ./rzn/fsp/src/r_sci_uart/r_sci_uart.o
 .rodata.g_div_coefficient
                0x00000000       0x1a ./rzn/fsp/src/r_sci_uart/r_sci_uart.o
 .rodata.g_async_baud
                0x00000000        0xd ./rzn/fsp/src/r_sci_uart/r_sci_uart.o
 .text          0x00000000        0x0 ./rzn/fsp/src/r_ioport/r_ioport.o
 .data          0x00000000        0x0 ./rzn/fsp/src/r_ioport/r_ioport.o
 .bss           0x00000000        0x0 ./rzn/fsp/src/r_ioport/r_ioport.o
 .text          0x00000000        0x0 ./rzn/fsp/src/r_ether_selector/r_ether_selector.o
 .data          0x00000000        0x0 ./rzn/fsp/src/r_ether_selector/r_ether_selector.o
 .bss           0x00000000        0x0 ./rzn/fsp/src/r_ether_selector/r_ether_selector.o
 .text          0x00000000        0x0 ./rzn/fsp/src/r_ether_phy/r_ether_phy.o
 .data          0x00000000        0x0 ./rzn/fsp/src/r_ether_phy/r_ether_phy.o
 .bss           0x00000000        0x0 ./rzn/fsp/src/r_ether_phy/r_ether_phy.o
 .text          0x00000000        0x0 ./rzn/fsp/src/r_cmt/r_cmt.o
 .data          0x00000000        0x0 ./rzn/fsp/src/r_cmt/r_cmt.o
 .bss           0x00000000        0x0 ./rzn/fsp/src/r_cmt/r_cmt.o
 .text.R_CMT_CounterSet
                0x00000000       0x20 ./rzn/fsp/src/r_cmt/r_cmt.o
 .text          0x00000000        0x0 ./rzn/fsp/src/bsp/mcu/rzn2l/bsp_irq_sense.o
 .data          0x00000000        0x0 ./rzn/fsp/src/bsp/mcu/rzn2l/bsp_irq_sense.o
 .bss           0x00000000        0x0 ./rzn/fsp/src/bsp/mcu/rzn2l/bsp_irq_sense.o
 .rodata.BSP_GICR_SGI_PPI_ICFGR_INIT
                0x00000000        0x8 ./rzn/fsp/src/bsp/mcu/rzn2l/bsp_irq_sense.o
 .text          0x00000000        0x0 ./rzn/fsp/src/bsp/mcu/rzn2l/bsp_loader_param.o
 .data          0x00000000        0x0 ./rzn/fsp/src/bsp/mcu/rzn2l/bsp_loader_param.o
 .bss           0x00000000        0x0 ./rzn/fsp/src/bsp/mcu/rzn2l/bsp_loader_param.o
 .debug_info    0x00000000       0x7a ./rzn/fsp/src/bsp/mcu/rzn2l/bsp_loader_param.o
 .debug_abbrev  0x00000000       0x26 ./rzn/fsp/src/bsp/mcu/rzn2l/bsp_loader_param.o
 .debug_aranges
                0x00000000       0x18 ./rzn/fsp/src/bsp/mcu/rzn2l/bsp_loader_param.o
 .debug_line    0x00000000       0x50 ./rzn/fsp/src/bsp/mcu/rzn2l/bsp_loader_param.o
 .debug_str     0x00000000      0x21b ./rzn/fsp/src/bsp/mcu/rzn2l/bsp_loader_param.o
 .comment       0x00000000       0x46 ./rzn/fsp/src/bsp/mcu/rzn2l/bsp_loader_param.o
 .ARM.attributes
                0x00000000       0x39 ./rzn/fsp/src/bsp/mcu/rzn2l/bsp_loader_param.o
 .text          0x00000000        0x0 ./rzn/fsp/src/bsp/mcu/all/cr/bsp_cache_core.o
 .data          0x00000000        0x0 ./rzn/fsp/src/bsp/mcu/all/cr/bsp_cache_core.o
 .bss           0x00000000        0x0 ./rzn/fsp/src/bsp/mcu/all/cr/bsp_cache_core.o
 .text.r_bsp_cache_l3_power_ctrl
                0x00000000        0x2 ./rzn/fsp/src/bsp/mcu/all/cr/bsp_cache_core.o
 .debug_info    0x00000000       0x94 ./rzn/fsp/src/bsp/mcu/all/cr/bsp_cache_core.o
 .debug_abbrev  0x00000000       0x43 ./rzn/fsp/src/bsp/mcu/all/cr/bsp_cache_core.o
 .debug_aranges
                0x00000000       0x20 ./rzn/fsp/src/bsp/mcu/all/cr/bsp_cache_core.o
 .debug_rnglists
                0x00000000       0x13 ./rzn/fsp/src/bsp/mcu/all/cr/bsp_cache_core.o
 .debug_line    0x00000000       0x61 ./rzn/fsp/src/bsp/mcu/all/cr/bsp_cache_core.o
 .debug_str     0x00000000      0x234 ./rzn/fsp/src/bsp/mcu/all/cr/bsp_cache_core.o
 .comment       0x00000000       0x46 ./rzn/fsp/src/bsp/mcu/all/cr/bsp_cache_core.o
 .debug_frame   0x00000000       0x20 ./rzn/fsp/src/bsp/mcu/all/cr/bsp_cache_core.o
 .ARM.attributes
                0x00000000       0x39 ./rzn/fsp/src/bsp/mcu/all/cr/bsp_cache_core.o
 .text          0x00000000        0x0 ./rzn/fsp/src/bsp/mcu/all/cr/bsp_delay_core.o
 .data          0x00000000        0x0 ./rzn/fsp/src/bsp/mcu/all/cr/bsp_delay_core.o
 .bss           0x00000000        0x0 ./rzn/fsp/src/bsp/mcu/all/cr/bsp_delay_core.o
 .text          0x00000000        0x0 ./rzn/fsp/src/bsp/mcu/all/cr/bsp_irq_core.o
 .data          0x00000000        0x0 ./rzn/fsp/src/bsp/mcu/all/cr/bsp_irq_core.o
 .bss           0x00000000        0x0 ./rzn/fsp/src/bsp/mcu/all/cr/bsp_irq_core.o
 .rodata.g_interrupt_event_link_select
                0x00000000      0x380 ./rzn/fsp/src/bsp/mcu/all/cr/bsp_irq_core.o
 .text          0x00000000        0x0 ./rzn/fsp/src/bsp/mcu/all/bsp_cache.o
 .data          0x00000000        0x0 ./rzn/fsp/src/bsp/mcu/all/bsp_cache.o
 .bss           0x00000000        0x0 ./rzn/fsp/src/bsp/mcu/all/bsp_cache.o
 .text.R_BSP_CacheDisableInst
                0x00000000       0x16 ./rzn/fsp/src/bsp/mcu/all/bsp_cache.o
 .text.R_BSP_CacheDisableData
                0x00000000       0x16 ./rzn/fsp/src/bsp/mcu/all/bsp_cache.o
 .text.R_BSP_CacheDisableMemoryProtect
                0x00000000       0x16 ./rzn/fsp/src/bsp/mcu/all/bsp_cache.o
 .text.R_BSP_CacheCleanAll
                0x00000000       0xa2 ./rzn/fsp/src/bsp/mcu/all/bsp_cache.o
 .text.R_BSP_CacheCleanInvalidateAll
                0x00000000       0xa2 ./rzn/fsp/src/bsp/mcu/all/bsp_cache.o
 .text.R_BSP_CacheCleanRange
                0x00000000       0x42 ./rzn/fsp/src/bsp/mcu/all/bsp_cache.o
 .text.R_BSP_CacheInvalidateRange
                0x00000000       0x42 ./rzn/fsp/src/bsp/mcu/all/bsp_cache.o
 .text.R_BSP_CacheCleanInvalidateRange
                0x00000000       0x42 ./rzn/fsp/src/bsp/mcu/all/bsp_cache.o
 .text.R_BSP_CacheL3PowerCtrl
                0x00000000        0x8 ./rzn/fsp/src/bsp/mcu/all/bsp_cache.o
 .text          0x00000000        0x0 ./rzn/fsp/src/bsp/mcu/all/bsp_clocks.o
 .data          0x00000000        0x0 ./rzn/fsp/src/bsp/mcu/all/bsp_clocks.o
 .bss           0x00000000        0x0 ./rzn/fsp/src/bsp/mcu/all/bsp_clocks.o
 .text.bsp_prv_clock_set
                0x00000000       0x72 ./rzn/fsp/src/bsp/mcu/all/bsp_clocks.o
 .text          0x00000000        0x0 ./rzn/fsp/src/bsp/mcu/all/bsp_common.o
 .data          0x00000000        0x0 ./rzn/fsp/src/bsp/mcu/all/bsp_common.o
 .bss           0x00000000        0x0 ./rzn/fsp/src/bsp/mcu/all/bsp_common.o
 .text.R_FSP_VersionGet
                0x00000000       0x10 ./rzn/fsp/src/bsp/mcu/all/bsp_common.o
 .text.bsp_init_internal
                0x00000000        0x2 ./rzn/fsp/src/bsp/mcu/all/bsp_common.o
 .version       0x00000000       0x44 ./rzn/fsp/src/bsp/mcu/all/bsp_common.o
 .rodata.g_bsp_system_clock_select_xspi_clk
                0x00000000       0x40 ./rzn/fsp/src/bsp/mcu/all/bsp_common.o
 .rodata.g_bsp_system_clock_select_ckio
                0x00000000       0x40 ./rzn/fsp/src/bsp/mcu/all/bsp_common.o
 .text          0x00000000        0x0 ./rzn/fsp/src/bsp/mcu/all/bsp_delay.o
 .data          0x00000000        0x0 ./rzn/fsp/src/bsp/mcu/all/bsp_delay.o
 .bss           0x00000000        0x0 ./rzn/fsp/src/bsp/mcu/all/bsp_delay.o
 .text.bsp_prv_software_delay_loop
                0x00000000        0x8 ./rzn/fsp/src/bsp/mcu/all/bsp_delay.o
 .text          0x00000000        0x0 ./rzn/fsp/src/bsp/mcu/all/bsp_io.o
 .data          0x00000000        0x0 ./rzn/fsp/src/bsp/mcu/all/bsp_io.o
 .bss           0x00000000        0x0 ./rzn/fsp/src/bsp/mcu/all/bsp_io.o
 .text          0x00000000        0x0 ./rzn/fsp/src/bsp/mcu/all/bsp_irq.o
 .data          0x00000000        0x0 ./rzn/fsp/src/bsp/mcu/all/bsp_irq.o
 .bss           0x00000000        0x0 ./rzn/fsp/src/bsp/mcu/all/bsp_irq.o
 .text          0x00000000        0x0 ./rzn/fsp/src/bsp/mcu/all/bsp_register_protection.o
 .data          0x00000000        0x0 ./rzn/fsp/src/bsp/mcu/all/bsp_register_protection.o
 .bss           0x00000000        0x0 ./rzn/fsp/src/bsp/mcu/all/bsp_register_protection.o
 .text          0x00000000        0x0 ./rzn/fsp/src/bsp/mcu/all/bsp_reset.o
 .data          0x00000000        0x0 ./rzn/fsp/src/bsp/mcu/all/bsp_reset.o
 .bss           0x00000000        0x0 ./rzn/fsp/src/bsp/mcu/all/bsp_reset.o
 .text.R_BSP_CPUReset
                0x00000000       0x24 ./rzn/fsp/src/bsp/mcu/all/bsp_reset.o
 .text.R_BSP_CPUResetRelease
                0x00000000        0xe ./rzn/fsp/src/bsp/mcu/all/bsp_reset.o
 .text          0x00000000        0x0 ./rzn/fsp/src/bsp/mcu/all/bsp_sbrk.o
 .data          0x00000000        0x0 ./rzn/fsp/src/bsp/mcu/all/bsp_sbrk.o
 .bss           0x00000000        0x0 ./rzn/fsp/src/bsp/mcu/all/bsp_sbrk.o
 .text          0x00000000        0x0 ./rzn/fsp/src/bsp/cmsis/Device/RENESAS/Source/cr/startup_core.o
 .data          0x00000000        0x0 ./rzn/fsp/src/bsp/cmsis/Device/RENESAS/Source/cr/startup_core.o
 .bss           0x00000000        0x0 ./rzn/fsp/src/bsp/cmsis/Device/RENESAS/Source/cr/startup_core.o
 .dummy         0x00000000        0x4 ./rzn/fsp/src/bsp/cmsis/Device/RENESAS/Source/cr/startup_core.o
 .text          0x00000000        0x0 ./rzn/fsp/src/bsp/cmsis/Device/RENESAS/Source/cr/system_core.o
 .data          0x00000000        0x0 ./rzn/fsp/src/bsp/cmsis/Device/RENESAS/Source/cr/system_core.o
 .bss           0x00000000        0x0 ./rzn/fsp/src/bsp/cmsis/Device/RENESAS/Source/cr/system_core.o
 .text          0x00000000        0x0 ./rzn/fsp/src/bsp/cmsis/Device/RENESAS/Source/startup.o
 .data          0x00000000        0x0 ./rzn/fsp/src/bsp/cmsis/Device/RENESAS/Source/startup.o
 .bss           0x00000000        0x0 ./rzn/fsp/src/bsp/cmsis/Device/RENESAS/Source/startup.o
 .text          0x00000000        0x0 ./rzn/fsp/src/bsp/cmsis/Device/RENESAS/Source/system.o
 .data          0x00000000        0x0 ./rzn/fsp/src/bsp/cmsis/Device/RENESAS/Source/system.o
 .bss           0x00000000        0x0 ./rzn/fsp/src/bsp/cmsis/Device/RENESAS/Source/system.o
 .text.R_BSP_WarmStart
                0x00000000        0x2 ./rzn/fsp/src/bsp/cmsis/Device/RENESAS/Source/system.o
 .text.bsp_loader_data_init
                0x00000000       0x22 ./rzn/fsp/src/bsp/cmsis/Device/RENESAS/Source/system.o
 .text.bsp_loader_bss_init
                0x00000000       0x1a ./rzn/fsp/src/bsp/cmsis/Device/RENESAS/Source/system.o
 .text.bsp_copy_to_ram
                0x00000000       0x7c ./rzn/fsp/src/bsp/cmsis/Device/RENESAS/Source/system.o
 .text.bsp_application_bss_init
                0x00000000       0x1a ./rzn/fsp/src/bsp/cmsis/Device/RENESAS/Source/system.o
 .text          0x00000000        0x0 ./rzn/board/rzn2l_rsk/board_init.o
 .data          0x00000000        0x0 ./rzn/board/rzn2l_rsk/board_init.o
 .bss           0x00000000        0x0 ./rzn/board/rzn2l_rsk/board_init.o
 .text.bsp_init
                0x00000000        0x2 ./rzn/board/rzn2l_rsk/board_init.o
 .debug_info    0x00000000       0xa5 ./rzn/board/rzn2l_rsk/board_init.o
 .debug_abbrev  0x00000000       0x5b ./rzn/board/rzn2l_rsk/board_init.o
 .debug_aranges
                0x00000000       0x20 ./rzn/board/rzn2l_rsk/board_init.o
 .debug_rnglists
                0x00000000       0x13 ./rzn/board/rzn2l_rsk/board_init.o
 .debug_line    0x00000000       0x5c ./rzn/board/rzn2l_rsk/board_init.o
 .debug_str     0x00000000      0x21f ./rzn/board/rzn2l_rsk/board_init.o
 .comment       0x00000000       0x46 ./rzn/board/rzn2l_rsk/board_init.o
 .debug_frame   0x00000000       0x20 ./rzn/board/rzn2l_rsk/board_init.o
 .ARM.attributes
                0x00000000       0x39 ./rzn/board/rzn2l_rsk/board_init.o
 .text          0x00000000        0x0 ./rzn/board/rzn2l_rsk/board_leds.o
 .data          0x00000000        0x0 ./rzn/board/rzn2l_rsk/board_leds.o
 .bss           0x00000000        0x0 ./rzn/board/rzn2l_rsk/board_leds.o
 .rodata.g_bsp_leds
                0x00000000        0x8 ./rzn/board/rzn2l_rsk/board_leds.o
 .rodata.g_bsp_prv_leds
                0x00000000       0x20 ./rzn/board/rzn2l_rsk/board_leds.o
 .debug_info    0x00000000      0x6e1 ./rzn/board/rzn2l_rsk/board_leds.o
 .debug_abbrev  0x00000000       0xe3 ./rzn/board/rzn2l_rsk/board_leds.o
 .debug_aranges
                0x00000000       0x18 ./rzn/board/rzn2l_rsk/board_leds.o
 .debug_line    0x00000000      0x1e5 ./rzn/board/rzn2l_rsk/board_leds.o
 .debug_str     0x00000000     0x132d ./rzn/board/rzn2l_rsk/board_leds.o
 .comment       0x00000000       0x46 ./rzn/board/rzn2l_rsk/board_leds.o
 .ARM.attributes
                0x00000000       0x39 ./rzn/board/rzn2l_rsk/board_leds.o
 .text          0x00000000       0xa0 d:/program files/gcc/arm gnu toolchain arm-none-eabi/12.2 rel1/bin/../lib/gcc/arm-none-eabi/12.2.1/thumb/v7+fp/hard\libgcc.a(_aeabi_ldivmod.o)
 .data          0x00000000        0x0 d:/program files/gcc/arm gnu toolchain arm-none-eabi/12.2 rel1/bin/../lib/gcc/arm-none-eabi/12.2.1/thumb/v7+fp/hard\libgcc.a(_aeabi_ldivmod.o)
 .bss           0x00000000        0x0 d:/program files/gcc/arm gnu toolchain arm-none-eabi/12.2 rel1/bin/../lib/gcc/arm-none-eabi/12.2.1/thumb/v7+fp/hard\libgcc.a(_aeabi_ldivmod.o)
 .debug_line_str
                0x00000000       0xc6 d:/program files/gcc/arm gnu toolchain arm-none-eabi/12.2 rel1/bin/../lib/gcc/arm-none-eabi/12.2.1/thumb/v7+fp/hard\libgcc.a(_aeabi_ldivmod.o)
 .debug_frame   0x00000000       0x44 d:/program files/gcc/arm gnu toolchain arm-none-eabi/12.2 rel1/bin/../lib/gcc/arm-none-eabi/12.2.1/thumb/v7+fp/hard\libgcc.a(_aeabi_ldivmod.o)
 .ARM.attributes
                0x00000000       0x1b d:/program files/gcc/arm gnu toolchain arm-none-eabi/12.2 rel1/bin/../lib/gcc/arm-none-eabi/12.2.1/thumb/v7+fp/hard\libgcc.a(_aeabi_ldivmod.o)
 .data          0x00000000        0x0 d:/program files/gcc/arm gnu toolchain arm-none-eabi/12.2 rel1/bin/../lib/gcc/arm-none-eabi/12.2.1/thumb/v7+fp/hard\libgcc.a(_aeabi_uldivmod.o)
 .bss           0x00000000        0x0 d:/program files/gcc/arm gnu toolchain arm-none-eabi/12.2 rel1/bin/../lib/gcc/arm-none-eabi/12.2.1/thumb/v7+fp/hard\libgcc.a(_aeabi_uldivmod.o)
 .text          0x00000000        0x0 d:/program files/gcc/arm gnu toolchain arm-none-eabi/12.2 rel1/bin/../lib/gcc/arm-none-eabi/12.2.1/thumb/v7+fp/hard\libgcc.a(_udivmoddi4.o)
 .data          0x00000000        0x0 d:/program files/gcc/arm gnu toolchain arm-none-eabi/12.2 rel1/bin/../lib/gcc/arm-none-eabi/12.2.1/thumb/v7+fp/hard\libgcc.a(_udivmoddi4.o)
 .bss           0x00000000        0x0 d:/program files/gcc/arm gnu toolchain arm-none-eabi/12.2 rel1/bin/../lib/gcc/arm-none-eabi/12.2.1/thumb/v7+fp/hard\libgcc.a(_udivmoddi4.o)
 .ARM.extab.text.__udivmoddi4
                0x00000000        0x0 d:/program files/gcc/arm gnu toolchain arm-none-eabi/12.2 rel1/bin/../lib/gcc/arm-none-eabi/12.2.1/thumb/v7+fp/hard\libgcc.a(_udivmoddi4.o)
 .data          0x00000000        0x0 d:/program files/gcc/arm gnu toolchain arm-none-eabi/12.2 rel1/bin/../lib/gcc/arm-none-eabi/12.2.1/thumb/v7+fp/hard\libgcc.a(_dvmd_tls.o)
 .bss           0x00000000        0x0 d:/program files/gcc/arm gnu toolchain arm-none-eabi/12.2 rel1/bin/../lib/gcc/arm-none-eabi/12.2.1/thumb/v7+fp/hard\libgcc.a(_dvmd_tls.o)
 .text          0x00000000        0x0 d:/program files/gcc/arm gnu toolchain arm-none-eabi/12.2 rel1/bin/../lib/gcc/arm-none-eabi/12.2.1/thumb/v7+fp/hard\libg_nano.a(libc_a-malloc.o)
 .data          0x00000000        0x0 d:/program files/gcc/arm gnu toolchain arm-none-eabi/12.2 rel1/bin/../lib/gcc/arm-none-eabi/12.2.1/thumb/v7+fp/hard\libg_nano.a(libc_a-malloc.o)
 .bss           0x00000000        0x0 d:/program files/gcc/arm gnu toolchain arm-none-eabi/12.2 rel1/bin/../lib/gcc/arm-none-eabi/12.2.1/thumb/v7+fp/hard\libg_nano.a(libc_a-malloc.o)
 .text          0x00000000        0x0 d:/program files/gcc/arm gnu toolchain arm-none-eabi/12.2 rel1/bin/../lib/gcc/arm-none-eabi/12.2.1/thumb/v7+fp/hard\libg_nano.a(libc_a-mallocr.o)
 .data          0x00000000        0x0 d:/program files/gcc/arm gnu toolchain arm-none-eabi/12.2 rel1/bin/../lib/gcc/arm-none-eabi/12.2.1/thumb/v7+fp/hard\libg_nano.a(libc_a-mallocr.o)
 .bss           0x00000000        0x0 d:/program files/gcc/arm gnu toolchain arm-none-eabi/12.2 rel1/bin/../lib/gcc/arm-none-eabi/12.2.1/thumb/v7+fp/hard\libg_nano.a(libc_a-mallocr.o)
 .text          0x00000000        0x0 d:/program files/gcc/arm gnu toolchain arm-none-eabi/12.2 rel1/bin/../lib/gcc/arm-none-eabi/12.2.1/thumb/v7+fp/hard\libg_nano.a(libc_a-mlock.o)
 .data          0x00000000        0x0 d:/program files/gcc/arm gnu toolchain arm-none-eabi/12.2 rel1/bin/../lib/gcc/arm-none-eabi/12.2.1/thumb/v7+fp/hard\libg_nano.a(libc_a-mlock.o)
 .bss           0x00000000        0x0 d:/program files/gcc/arm gnu toolchain arm-none-eabi/12.2 rel1/bin/../lib/gcc/arm-none-eabi/12.2.1/thumb/v7+fp/hard\libg_nano.a(libc_a-mlock.o)
 .text          0x00000000        0x0 d:/program files/gcc/arm gnu toolchain arm-none-eabi/12.2 rel1/bin/../lib/gcc/arm-none-eabi/12.2.1/thumb/v7+fp/hard\libg_nano.a(libc_a-nano-vfprintf_float.o)
 .data          0x00000000        0x0 d:/program files/gcc/arm gnu toolchain arm-none-eabi/12.2 rel1/bin/../lib/gcc/arm-none-eabi/12.2.1/thumb/v7+fp/hard\libg_nano.a(libc_a-nano-vfprintf_float.o)
 .bss           0x00000000        0x0 d:/program files/gcc/arm gnu toolchain arm-none-eabi/12.2 rel1/bin/../lib/gcc/arm-none-eabi/12.2.1/thumb/v7+fp/hard\libg_nano.a(libc_a-nano-vfprintf_float.o)
 .text          0x00000000        0x0 d:/program files/gcc/arm gnu toolchain arm-none-eabi/12.2 rel1/bin/../lib/gcc/arm-none-eabi/12.2.1/thumb/v7+fp/hard\libg_nano.a(libc_a-nano-vfprintf_i.o)
 .data          0x00000000        0x0 d:/program files/gcc/arm gnu toolchain arm-none-eabi/12.2 rel1/bin/../lib/gcc/arm-none-eabi/12.2.1/thumb/v7+fp/hard\libg_nano.a(libc_a-nano-vfprintf_i.o)
 .bss           0x00000000        0x0 d:/program files/gcc/arm gnu toolchain arm-none-eabi/12.2 rel1/bin/../lib/gcc/arm-none-eabi/12.2.1/thumb/v7+fp/hard\libg_nano.a(libc_a-nano-vfprintf_i.o)
 .text          0x00000000        0x0 d:/program files/gcc/arm gnu toolchain arm-none-eabi/12.2 rel1/bin/../lib/gcc/arm-none-eabi/12.2.1/thumb/v7+fp/hard\libg_nano.a(libc_a-printf.o)
 .data          0x00000000        0x0 d:/program files/gcc/arm gnu toolchain arm-none-eabi/12.2 rel1/bin/../lib/gcc/arm-none-eabi/12.2.1/thumb/v7+fp/hard\libg_nano.a(libc_a-printf.o)
 .bss           0x00000000        0x0 d:/program files/gcc/arm gnu toolchain arm-none-eabi/12.2 rel1/bin/../lib/gcc/arm-none-eabi/12.2.1/thumb/v7+fp/hard\libg_nano.a(libc_a-printf.o)
 .text._printf_r
                0x00000000       0x1c d:/program files/gcc/arm gnu toolchain arm-none-eabi/12.2 rel1/bin/../lib/gcc/arm-none-eabi/12.2.1/thumb/v7+fp/hard\libg_nano.a(libc_a-printf.o)
 .text          0x00000000        0x0 d:/program files/gcc/arm gnu toolchain arm-none-eabi/12.2 rel1/bin/../lib/gcc/arm-none-eabi/12.2.1/thumb/v7+fp/hard\libg_nano.a(libc_a-puts.o)
 .data          0x00000000        0x0 d:/program files/gcc/arm gnu toolchain arm-none-eabi/12.2 rel1/bin/../lib/gcc/arm-none-eabi/12.2.1/thumb/v7+fp/hard\libg_nano.a(libc_a-puts.o)
 .bss           0x00000000        0x0 d:/program files/gcc/arm gnu toolchain arm-none-eabi/12.2 rel1/bin/../lib/gcc/arm-none-eabi/12.2.1/thumb/v7+fp/hard\libg_nano.a(libc_a-puts.o)
 .text          0x00000000        0x0 d:/program files/gcc/arm gnu toolchain arm-none-eabi/12.2 rel1/bin/../lib/gcc/arm-none-eabi/12.2.1/thumb/v7+fp/hard\libg_nano.a(libc_a-wbuf.o)
 .data          0x00000000        0x0 d:/program files/gcc/arm gnu toolchain arm-none-eabi/12.2 rel1/bin/../lib/gcc/arm-none-eabi/12.2.1/thumb/v7+fp/hard\libg_nano.a(libc_a-wbuf.o)
 .bss           0x00000000        0x0 d:/program files/gcc/arm gnu toolchain arm-none-eabi/12.2 rel1/bin/../lib/gcc/arm-none-eabi/12.2.1/thumb/v7+fp/hard\libg_nano.a(libc_a-wbuf.o)
 .text.__swbuf  0x00000000       0x10 d:/program files/gcc/arm gnu toolchain arm-none-eabi/12.2 rel1/bin/../lib/gcc/arm-none-eabi/12.2.1/thumb/v7+fp/hard\libg_nano.a(libc_a-wbuf.o)
 .text          0x00000000        0x0 d:/program files/gcc/arm gnu toolchain arm-none-eabi/12.2 rel1/bin/../lib/gcc/arm-none-eabi/12.2.1/thumb/v7+fp/hard\libg_nano.a(libc_a-wsetup.o)
 .data          0x00000000        0x0 d:/program files/gcc/arm gnu toolchain arm-none-eabi/12.2 rel1/bin/../lib/gcc/arm-none-eabi/12.2.1/thumb/v7+fp/hard\libg_nano.a(libc_a-wsetup.o)
 .bss           0x00000000        0x0 d:/program files/gcc/arm gnu toolchain arm-none-eabi/12.2 rel1/bin/../lib/gcc/arm-none-eabi/12.2.1/thumb/v7+fp/hard\libg_nano.a(libc_a-wsetup.o)
 .text          0x00000000        0x0 d:/program files/gcc/arm gnu toolchain arm-none-eabi/12.2 rel1/bin/../lib/gcc/arm-none-eabi/12.2.1/thumb/v7+fp/hard\libg_nano.a(libc_a-memcmp.o)
 .data          0x00000000        0x0 d:/program files/gcc/arm gnu toolchain arm-none-eabi/12.2 rel1/bin/../lib/gcc/arm-none-eabi/12.2.1/thumb/v7+fp/hard\libg_nano.a(libc_a-memcmp.o)
 .bss           0x00000000        0x0 d:/program files/gcc/arm gnu toolchain arm-none-eabi/12.2 rel1/bin/../lib/gcc/arm-none-eabi/12.2.1/thumb/v7+fp/hard\libg_nano.a(libc_a-memcmp.o)
 .text          0x00000000        0x0 d:/program files/gcc/arm gnu toolchain arm-none-eabi/12.2 rel1/bin/../lib/gcc/arm-none-eabi/12.2.1/thumb/v7+fp/hard\libg_nano.a(libc_a-memset.o)
 .data          0x00000000        0x0 d:/program files/gcc/arm gnu toolchain arm-none-eabi/12.2 rel1/bin/../lib/gcc/arm-none-eabi/12.2.1/thumb/v7+fp/hard\libg_nano.a(libc_a-memset.o)
 .bss           0x00000000        0x0 d:/program files/gcc/arm gnu toolchain arm-none-eabi/12.2 rel1/bin/../lib/gcc/arm-none-eabi/12.2.1/thumb/v7+fp/hard\libg_nano.a(libc_a-memset.o)
 .text          0x00000000        0x0 d:/program files/gcc/arm gnu toolchain arm-none-eabi/12.2 rel1/bin/../lib/gcc/arm-none-eabi/12.2.1/thumb/v7+fp/hard\libg_nano.a(libc_a-localeconv.o)
 .data          0x00000000        0x0 d:/program files/gcc/arm gnu toolchain arm-none-eabi/12.2 rel1/bin/../lib/gcc/arm-none-eabi/12.2.1/thumb/v7+fp/hard\libg_nano.a(libc_a-localeconv.o)
 .bss           0x00000000        0x0 d:/program files/gcc/arm gnu toolchain arm-none-eabi/12.2 rel1/bin/../lib/gcc/arm-none-eabi/12.2.1/thumb/v7+fp/hard\libg_nano.a(libc_a-localeconv.o)
 .text.__localeconv_l
                0x00000000        0x4 d:/program files/gcc/arm gnu toolchain arm-none-eabi/12.2 rel1/bin/../lib/gcc/arm-none-eabi/12.2.1/thumb/v7+fp/hard\libg_nano.a(libc_a-localeconv.o)
 .text.localeconv
                0x00000000        0x8 d:/program files/gcc/arm gnu toolchain arm-none-eabi/12.2 rel1/bin/../lib/gcc/arm-none-eabi/12.2.1/thumb/v7+fp/hard\libg_nano.a(libc_a-localeconv.o)
 .text          0x00000000        0x0 d:/program files/gcc/arm gnu toolchain arm-none-eabi/12.2 rel1/bin/../lib/gcc/arm-none-eabi/12.2.1/thumb/v7+fp/hard\libg_nano.a(libc_a-impure.o)
 .data          0x00000000        0x0 d:/program files/gcc/arm gnu toolchain arm-none-eabi/12.2 rel1/bin/../lib/gcc/arm-none-eabi/12.2.1/thumb/v7+fp/hard\libg_nano.a(libc_a-impure.o)
 .bss           0x00000000        0x0 d:/program files/gcc/arm gnu toolchain arm-none-eabi/12.2 rel1/bin/../lib/gcc/arm-none-eabi/12.2.1/thumb/v7+fp/hard\libg_nano.a(libc_a-impure.o)
 .text          0x00000000        0x0 d:/program files/gcc/arm gnu toolchain arm-none-eabi/12.2 rel1/bin/../lib/gcc/arm-none-eabi/12.2.1/thumb/v7+fp/hard\libg_nano.a(libc_a-sbrkr.o)
 .data          0x00000000        0x0 d:/program files/gcc/arm gnu toolchain arm-none-eabi/12.2 rel1/bin/../lib/gcc/arm-none-eabi/12.2.1/thumb/v7+fp/hard\libg_nano.a(libc_a-sbrkr.o)
 .bss           0x00000000        0x0 d:/program files/gcc/arm gnu toolchain arm-none-eabi/12.2 rel1/bin/../lib/gcc/arm-none-eabi/12.2.1/thumb/v7+fp/hard\libg_nano.a(libc_a-sbrkr.o)
 .text          0x00000000        0x0 d:/program files/gcc/arm gnu toolchain arm-none-eabi/12.2 rel1/bin/../lib/gcc/arm-none-eabi/12.2.1/thumb/v7+fp/hard\libg_nano.a(libc_a-errno.o)
 .data          0x00000000        0x0 d:/program files/gcc/arm gnu toolchain arm-none-eabi/12.2 rel1/bin/../lib/gcc/arm-none-eabi/12.2.1/thumb/v7+fp/hard\libg_nano.a(libc_a-errno.o)
 .bss           0x00000000        0x0 d:/program files/gcc/arm gnu toolchain arm-none-eabi/12.2 rel1/bin/../lib/gcc/arm-none-eabi/12.2.1/thumb/v7+fp/hard\libg_nano.a(libc_a-errno.o)
 .text          0x00000000        0x0 d:/program files/gcc/arm gnu toolchain arm-none-eabi/12.2 rel1/bin/../lib/gcc/arm-none-eabi/12.2.1/thumb/v7+fp/hard\libg_nano.a(libc_a-lock.o)
 .data          0x00000000        0x0 d:/program files/gcc/arm gnu toolchain arm-none-eabi/12.2 rel1/bin/../lib/gcc/arm-none-eabi/12.2.1/thumb/v7+fp/hard\libg_nano.a(libc_a-lock.o)
 .bss           0x00000000        0x0 d:/program files/gcc/arm gnu toolchain arm-none-eabi/12.2 rel1/bin/../lib/gcc/arm-none-eabi/12.2.1/thumb/v7+fp/hard\libg_nano.a(libc_a-lock.o)
 .text.__retarget_lock_init
                0x00000000        0x2 d:/program files/gcc/arm gnu toolchain arm-none-eabi/12.2 rel1/bin/../lib/gcc/arm-none-eabi/12.2.1/thumb/v7+fp/hard\libg_nano.a(libc_a-lock.o)
 .text.__retarget_lock_close
                0x00000000        0x2 d:/program files/gcc/arm gnu toolchain arm-none-eabi/12.2 rel1/bin/../lib/gcc/arm-none-eabi/12.2.1/thumb/v7+fp/hard\libg_nano.a(libc_a-lock.o)
 .text.__retarget_lock_close_recursive
                0x00000000        0x2 d:/program files/gcc/arm gnu toolchain arm-none-eabi/12.2 rel1/bin/../lib/gcc/arm-none-eabi/12.2.1/thumb/v7+fp/hard\libg_nano.a(libc_a-lock.o)
 .text.__retarget_lock_acquire
                0x00000000        0x2 d:/program files/gcc/arm gnu toolchain arm-none-eabi/12.2 rel1/bin/../lib/gcc/arm-none-eabi/12.2.1/thumb/v7+fp/hard\libg_nano.a(libc_a-lock.o)
 .text.__retarget_lock_try_acquire
                0x00000000        0x4 d:/program files/gcc/arm gnu toolchain arm-none-eabi/12.2 rel1/bin/../lib/gcc/arm-none-eabi/12.2.1/thumb/v7+fp/hard\libg_nano.a(libc_a-lock.o)
 .text.__retarget_lock_try_acquire_recursive
                0x00000000        0x4 d:/program files/gcc/arm gnu toolchain arm-none-eabi/12.2 rel1/bin/../lib/gcc/arm-none-eabi/12.2.1/thumb/v7+fp/hard\libg_nano.a(libc_a-lock.o)
 .text.__retarget_lock_release
                0x00000000        0x2 d:/program files/gcc/arm gnu toolchain arm-none-eabi/12.2 rel1/bin/../lib/gcc/arm-none-eabi/12.2.1/thumb/v7+fp/hard\libg_nano.a(libc_a-lock.o)
 .bss.__lock___arc4random_mutex
                0x00000000        0x1 d:/program files/gcc/arm gnu toolchain arm-none-eabi/12.2 rel1/bin/../lib/gcc/arm-none-eabi/12.2.1/thumb/v7+fp/hard\libg_nano.a(libc_a-lock.o)
 .bss.__lock___dd_hash_mutex
                0x00000000        0x1 d:/program files/gcc/arm gnu toolchain arm-none-eabi/12.2 rel1/bin/../lib/gcc/arm-none-eabi/12.2.1/thumb/v7+fp/hard\libg_nano.a(libc_a-lock.o)
 .bss.__lock___tz_mutex
                0x00000000        0x1 d:/program files/gcc/arm gnu toolchain arm-none-eabi/12.2 rel1/bin/../lib/gcc/arm-none-eabi/12.2.1/thumb/v7+fp/hard\libg_nano.a(libc_a-lock.o)
 .bss.__lock___env_recursive_mutex
                0x00000000        0x1 d:/program files/gcc/arm gnu toolchain arm-none-eabi/12.2 rel1/bin/../lib/gcc/arm-none-eabi/12.2.1/thumb/v7+fp/hard\libg_nano.a(libc_a-lock.o)
 .bss.__lock___at_quick_exit_mutex
                0x00000000        0x1 d:/program files/gcc/arm gnu toolchain arm-none-eabi/12.2 rel1/bin/../lib/gcc/arm-none-eabi/12.2.1/thumb/v7+fp/hard\libg_nano.a(libc_a-lock.o)
 .bss.__lock___atexit_recursive_mutex
                0x00000000        0x1 d:/program files/gcc/arm gnu toolchain arm-none-eabi/12.2 rel1/bin/../lib/gcc/arm-none-eabi/12.2.1/thumb/v7+fp/hard\libg_nano.a(libc_a-lock.o)
 .text          0x00000000        0x0 d:/program files/gcc/arm gnu toolchain arm-none-eabi/12.2 rel1/bin/../lib/gcc/arm-none-eabi/12.2.1/thumb/v7+fp/hard\libg_nano.a(libc_a-memchr-stub.o)
 .data          0x00000000        0x0 d:/program files/gcc/arm gnu toolchain arm-none-eabi/12.2 rel1/bin/../lib/gcc/arm-none-eabi/12.2.1/thumb/v7+fp/hard\libg_nano.a(libc_a-memchr-stub.o)
 .bss           0x00000000        0x0 d:/program files/gcc/arm gnu toolchain arm-none-eabi/12.2 rel1/bin/../lib/gcc/arm-none-eabi/12.2.1/thumb/v7+fp/hard\libg_nano.a(libc_a-memchr-stub.o)
 .text          0x00000000        0x0 d:/program files/gcc/arm gnu toolchain arm-none-eabi/12.2 rel1/bin/../lib/gcc/arm-none-eabi/12.2.1/thumb/v7+fp/hard\libg_nano.a(libc_a-memcpy-stub.o)
 .data          0x00000000        0x0 d:/program files/gcc/arm gnu toolchain arm-none-eabi/12.2 rel1/bin/../lib/gcc/arm-none-eabi/12.2.1/thumb/v7+fp/hard\libg_nano.a(libc_a-memcpy-stub.o)
 .bss           0x00000000        0x0 d:/program files/gcc/arm gnu toolchain arm-none-eabi/12.2 rel1/bin/../lib/gcc/arm-none-eabi/12.2.1/thumb/v7+fp/hard\libg_nano.a(libc_a-memcpy-stub.o)
 .data          0x00000000        0x0 d:/program files/gcc/arm gnu toolchain arm-none-eabi/12.2 rel1/bin/../lib/gcc/arm-none-eabi/12.2.1/thumb/v7+fp/hard\libg_nano.a(libc_a-strlen.o)
 .bss           0x00000000        0x0 d:/program files/gcc/arm gnu toolchain arm-none-eabi/12.2 rel1/bin/../lib/gcc/arm-none-eabi/12.2.1/thumb/v7+fp/hard\libg_nano.a(libc_a-strlen.o)
 .text          0x00000000        0x0 d:/program files/gcc/arm gnu toolchain arm-none-eabi/12.2 rel1/bin/../lib/gcc/arm-none-eabi/12.2.1/thumb/v7+fp/hard\libg_nano.a(libc_a-dtoa.o)
 .data          0x00000000        0x0 d:/program files/gcc/arm gnu toolchain arm-none-eabi/12.2 rel1/bin/../lib/gcc/arm-none-eabi/12.2.1/thumb/v7+fp/hard\libg_nano.a(libc_a-dtoa.o)
 .bss           0x00000000        0x0 d:/program files/gcc/arm gnu toolchain arm-none-eabi/12.2 rel1/bin/../lib/gcc/arm-none-eabi/12.2.1/thumb/v7+fp/hard\libg_nano.a(libc_a-dtoa.o)
 .text          0x00000000        0x0 d:/program files/gcc/arm gnu toolchain arm-none-eabi/12.2 rel1/bin/../lib/gcc/arm-none-eabi/12.2.1/thumb/v7+fp/hard\libg_nano.a(libc_a-freer.o)
 .data          0x00000000        0x0 d:/program files/gcc/arm gnu toolchain arm-none-eabi/12.2 rel1/bin/../lib/gcc/arm-none-eabi/12.2.1/thumb/v7+fp/hard\libg_nano.a(libc_a-freer.o)
 .bss           0x00000000        0x0 d:/program files/gcc/arm gnu toolchain arm-none-eabi/12.2 rel1/bin/../lib/gcc/arm-none-eabi/12.2.1/thumb/v7+fp/hard\libg_nano.a(libc_a-freer.o)
 .text          0x00000000        0x0 d:/program files/gcc/arm gnu toolchain arm-none-eabi/12.2 rel1/bin/../lib/gcc/arm-none-eabi/12.2.1/thumb/v7+fp/hard\libg_nano.a(libc_a-mprec.o)
 .data          0x00000000        0x0 d:/program files/gcc/arm gnu toolchain arm-none-eabi/12.2 rel1/bin/../lib/gcc/arm-none-eabi/12.2.1/thumb/v7+fp/hard\libg_nano.a(libc_a-mprec.o)
 .bss           0x00000000        0x0 d:/program files/gcc/arm gnu toolchain arm-none-eabi/12.2 rel1/bin/../lib/gcc/arm-none-eabi/12.2.1/thumb/v7+fp/hard\libg_nano.a(libc_a-mprec.o)
 .text.__s2b    0x00000000       0x9c d:/program files/gcc/arm gnu toolchain arm-none-eabi/12.2 rel1/bin/../lib/gcc/arm-none-eabi/12.2.1/thumb/v7+fp/hard\libg_nano.a(libc_a-mprec.o)
 .text.__ulp    0x00000000       0x4c d:/program files/gcc/arm gnu toolchain arm-none-eabi/12.2 rel1/bin/../lib/gcc/arm-none-eabi/12.2.1/thumb/v7+fp/hard\libg_nano.a(libc_a-mprec.o)
 .text.__b2d    0x00000000       0x9c d:/program files/gcc/arm gnu toolchain arm-none-eabi/12.2 rel1/bin/../lib/gcc/arm-none-eabi/12.2.1/thumb/v7+fp/hard\libg_nano.a(libc_a-mprec.o)
 .text.__ratio  0x00000000       0x60 d:/program files/gcc/arm gnu toolchain arm-none-eabi/12.2 rel1/bin/../lib/gcc/arm-none-eabi/12.2.1/thumb/v7+fp/hard\libg_nano.a(libc_a-mprec.o)
 .text._mprec_log10
                0x00000000       0x28 d:/program files/gcc/arm gnu toolchain arm-none-eabi/12.2 rel1/bin/../lib/gcc/arm-none-eabi/12.2.1/thumb/v7+fp/hard\libg_nano.a(libc_a-mprec.o)
 .text.__copybits
                0x00000000       0x46 d:/program files/gcc/arm gnu toolchain arm-none-eabi/12.2 rel1/bin/../lib/gcc/arm-none-eabi/12.2.1/thumb/v7+fp/hard\libg_nano.a(libc_a-mprec.o)
 .text.__any_on
                0x00000000       0x42 d:/program files/gcc/arm gnu toolchain arm-none-eabi/12.2 rel1/bin/../lib/gcc/arm-none-eabi/12.2.1/thumb/v7+fp/hard\libg_nano.a(libc_a-mprec.o)
 .rodata.__mprec_tinytens
                0x00000000       0x28 d:/program files/gcc/arm gnu toolchain arm-none-eabi/12.2 rel1/bin/../lib/gcc/arm-none-eabi/12.2.1/thumb/v7+fp/hard\libg_nano.a(libc_a-mprec.o)
 .text          0x00000000        0x0 d:/program files/gcc/arm gnu toolchain arm-none-eabi/12.2 rel1/bin/../lib/gcc/arm-none-eabi/12.2.1/thumb/v7+fp/hard\libg_nano.a(libc_a-nano-vfprintf.o)
 .data          0x00000000        0x0 d:/program files/gcc/arm gnu toolchain arm-none-eabi/12.2 rel1/bin/../lib/gcc/arm-none-eabi/12.2.1/thumb/v7+fp/hard\libg_nano.a(libc_a-nano-vfprintf.o)
 .bss           0x00000000        0x0 d:/program files/gcc/arm gnu toolchain arm-none-eabi/12.2 rel1/bin/../lib/gcc/arm-none-eabi/12.2.1/thumb/v7+fp/hard\libg_nano.a(libc_a-nano-vfprintf.o)
 .text.__sprint_r
                0x00000000       0x1a d:/program files/gcc/arm gnu toolchain arm-none-eabi/12.2 rel1/bin/../lib/gcc/arm-none-eabi/12.2.1/thumb/v7+fp/hard\libg_nano.a(libc_a-nano-vfprintf.o)
 .text.vfprintf
                0x00000000       0x14 d:/program files/gcc/arm gnu toolchain arm-none-eabi/12.2 rel1/bin/../lib/gcc/arm-none-eabi/12.2.1/thumb/v7+fp/hard\libg_nano.a(libc_a-nano-vfprintf.o)
 .text          0x00000000        0x0 d:/program files/gcc/arm gnu toolchain arm-none-eabi/12.2 rel1/bin/../lib/gcc/arm-none-eabi/12.2.1/thumb/v7+fp/hard\libg_nano.a(libc_a-fflush.o)
 .data          0x00000000        0x0 d:/program files/gcc/arm gnu toolchain arm-none-eabi/12.2 rel1/bin/../lib/gcc/arm-none-eabi/12.2.1/thumb/v7+fp/hard\libg_nano.a(libc_a-fflush.o)
 .bss           0x00000000        0x0 d:/program files/gcc/arm gnu toolchain arm-none-eabi/12.2 rel1/bin/../lib/gcc/arm-none-eabi/12.2.1/thumb/v7+fp/hard\libg_nano.a(libc_a-fflush.o)
 .text.fflush   0x00000000       0x28 d:/program files/gcc/arm gnu toolchain arm-none-eabi/12.2 rel1/bin/../lib/gcc/arm-none-eabi/12.2.1/thumb/v7+fp/hard\libg_nano.a(libc_a-fflush.o)
 .text          0x00000000        0x0 d:/program files/gcc/arm gnu toolchain arm-none-eabi/12.2 rel1/bin/../lib/gcc/arm-none-eabi/12.2.1/thumb/v7+fp/hard\libg_nano.a(libc_a-findfp.o)
 .data          0x00000000        0x0 d:/program files/gcc/arm gnu toolchain arm-none-eabi/12.2 rel1/bin/../lib/gcc/arm-none-eabi/12.2.1/thumb/v7+fp/hard\libg_nano.a(libc_a-findfp.o)
 .bss           0x00000000        0x0 d:/program files/gcc/arm gnu toolchain arm-none-eabi/12.2 rel1/bin/../lib/gcc/arm-none-eabi/12.2.1/thumb/v7+fp/hard\libg_nano.a(libc_a-findfp.o)
 .text.__fp_lock
                0x00000000       0x18 d:/program files/gcc/arm gnu toolchain arm-none-eabi/12.2 rel1/bin/../lib/gcc/arm-none-eabi/12.2.1/thumb/v7+fp/hard\libg_nano.a(libc_a-findfp.o)
 .text.__fp_unlock
                0x00000000       0x18 d:/program files/gcc/arm gnu toolchain arm-none-eabi/12.2 rel1/bin/../lib/gcc/arm-none-eabi/12.2.1/thumb/v7+fp/hard\libg_nano.a(libc_a-findfp.o)
 .text.__sfp    0x00000000       0xa4 d:/program files/gcc/arm gnu toolchain arm-none-eabi/12.2 rel1/bin/../lib/gcc/arm-none-eabi/12.2.1/thumb/v7+fp/hard\libg_nano.a(libc_a-findfp.o)
 .text.__fp_lock_all
                0x00000000       0x1c d:/program files/gcc/arm gnu toolchain arm-none-eabi/12.2 rel1/bin/../lib/gcc/arm-none-eabi/12.2.1/thumb/v7+fp/hard\libg_nano.a(libc_a-findfp.o)
 .text.__fp_unlock_all
                0x00000000       0x1c d:/program files/gcc/arm gnu toolchain arm-none-eabi/12.2 rel1/bin/../lib/gcc/arm-none-eabi/12.2.1/thumb/v7+fp/hard\libg_nano.a(libc_a-findfp.o)
 .text          0x00000000        0x0 d:/program files/gcc/arm gnu toolchain arm-none-eabi/12.2 rel1/bin/../lib/gcc/arm-none-eabi/12.2.1/thumb/v7+fp/hard\libg_nano.a(libc_a-fvwrite.o)
 .data          0x00000000        0x0 d:/program files/gcc/arm gnu toolchain arm-none-eabi/12.2 rel1/bin/../lib/gcc/arm-none-eabi/12.2.1/thumb/v7+fp/hard\libg_nano.a(libc_a-fvwrite.o)
 .bss           0x00000000        0x0 d:/program files/gcc/arm gnu toolchain arm-none-eabi/12.2 rel1/bin/../lib/gcc/arm-none-eabi/12.2.1/thumb/v7+fp/hard\libg_nano.a(libc_a-fvwrite.o)
 .text.__sfvwrite_r
                0x00000000      0x2a4 d:/program files/gcc/arm gnu toolchain arm-none-eabi/12.2 rel1/bin/../lib/gcc/arm-none-eabi/12.2.1/thumb/v7+fp/hard\libg_nano.a(libc_a-fvwrite.o)
 .debug_frame   0x00000000       0x3c d:/program files/gcc/arm gnu toolchain arm-none-eabi/12.2 rel1/bin/../lib/gcc/arm-none-eabi/12.2.1/thumb/v7+fp/hard\libg_nano.a(libc_a-fvwrite.o)
 .ARM.attributes
                0x00000000       0x2d d:/program files/gcc/arm gnu toolchain arm-none-eabi/12.2 rel1/bin/../lib/gcc/arm-none-eabi/12.2.1/thumb/v7+fp/hard\libg_nano.a(libc_a-fvwrite.o)
 .text          0x00000000        0x0 d:/program files/gcc/arm gnu toolchain arm-none-eabi/12.2 rel1/bin/../lib/gcc/arm-none-eabi/12.2.1/thumb/v7+fp/hard\libg_nano.a(libc_a-fwalk.o)
 .data          0x00000000        0x0 d:/program files/gcc/arm gnu toolchain arm-none-eabi/12.2 rel1/bin/../lib/gcc/arm-none-eabi/12.2.1/thumb/v7+fp/hard\libg_nano.a(libc_a-fwalk.o)
 .bss           0x00000000        0x0 d:/program files/gcc/arm gnu toolchain arm-none-eabi/12.2 rel1/bin/../lib/gcc/arm-none-eabi/12.2.1/thumb/v7+fp/hard\libg_nano.a(libc_a-fwalk.o)
 .text          0x00000000        0x0 d:/program files/gcc/arm gnu toolchain arm-none-eabi/12.2 rel1/bin/../lib/gcc/arm-none-eabi/12.2.1/thumb/v7+fp/hard\libg_nano.a(libc_a-makebuf.o)
 .data          0x00000000        0x0 d:/program files/gcc/arm gnu toolchain arm-none-eabi/12.2 rel1/bin/../lib/gcc/arm-none-eabi/12.2.1/thumb/v7+fp/hard\libg_nano.a(libc_a-makebuf.o)
 .bss           0x00000000        0x0 d:/program files/gcc/arm gnu toolchain arm-none-eabi/12.2 rel1/bin/../lib/gcc/arm-none-eabi/12.2.1/thumb/v7+fp/hard\libg_nano.a(libc_a-makebuf.o)
 .text          0x00000000        0x0 d:/program files/gcc/arm gnu toolchain arm-none-eabi/12.2 rel1/bin/../lib/gcc/arm-none-eabi/12.2.1/thumb/v7+fp/hard\libg_nano.a(libc_a-stdio.o)
 .data          0x00000000        0x0 d:/program files/gcc/arm gnu toolchain arm-none-eabi/12.2 rel1/bin/../lib/gcc/arm-none-eabi/12.2.1/thumb/v7+fp/hard\libg_nano.a(libc_a-stdio.o)
 .bss           0x00000000        0x0 d:/program files/gcc/arm gnu toolchain arm-none-eabi/12.2 rel1/bin/../lib/gcc/arm-none-eabi/12.2.1/thumb/v7+fp/hard\libg_nano.a(libc_a-stdio.o)
 .text.__seofread
                0x00000000        0x4 d:/program files/gcc/arm gnu toolchain arm-none-eabi/12.2 rel1/bin/../lib/gcc/arm-none-eabi/12.2.1/thumb/v7+fp/hard\libg_nano.a(libc_a-stdio.o)
 .text          0x00000000        0x0 d:/program files/gcc/arm gnu toolchain arm-none-eabi/12.2 rel1/bin/../lib/gcc/arm-none-eabi/12.2.1/thumb/v7+fp/hard\libg_nano.a(libc_a-memmove.o)
 .data          0x00000000        0x0 d:/program files/gcc/arm gnu toolchain arm-none-eabi/12.2 rel1/bin/../lib/gcc/arm-none-eabi/12.2.1/thumb/v7+fp/hard\libg_nano.a(libc_a-memmove.o)
 .bss           0x00000000        0x0 d:/program files/gcc/arm gnu toolchain arm-none-eabi/12.2 rel1/bin/../lib/gcc/arm-none-eabi/12.2.1/thumb/v7+fp/hard\libg_nano.a(libc_a-memmove.o)
 .text.memmove  0x00000000       0x34 d:/program files/gcc/arm gnu toolchain arm-none-eabi/12.2 rel1/bin/../lib/gcc/arm-none-eabi/12.2.1/thumb/v7+fp/hard\libg_nano.a(libc_a-memmove.o)
 .debug_frame   0x00000000       0x28 d:/program files/gcc/arm gnu toolchain arm-none-eabi/12.2 rel1/bin/../lib/gcc/arm-none-eabi/12.2.1/thumb/v7+fp/hard\libg_nano.a(libc_a-memmove.o)
 .ARM.attributes
                0x00000000       0x2d d:/program files/gcc/arm gnu toolchain arm-none-eabi/12.2 rel1/bin/../lib/gcc/arm-none-eabi/12.2.1/thumb/v7+fp/hard\libg_nano.a(libc_a-memmove.o)
 .text          0x00000000        0x0 d:/program files/gcc/arm gnu toolchain arm-none-eabi/12.2 rel1/bin/../lib/gcc/arm-none-eabi/12.2.1/thumb/v7+fp/hard\libg_nano.a(libc_a-locale.o)
 .data          0x00000000        0x0 d:/program files/gcc/arm gnu toolchain arm-none-eabi/12.2 rel1/bin/../lib/gcc/arm-none-eabi/12.2.1/thumb/v7+fp/hard\libg_nano.a(libc_a-locale.o)
 .bss           0x00000000        0x0 d:/program files/gcc/arm gnu toolchain arm-none-eabi/12.2 rel1/bin/../lib/gcc/arm-none-eabi/12.2.1/thumb/v7+fp/hard\libg_nano.a(libc_a-locale.o)
 .text._setlocale_r
                0x00000000       0x3c d:/program files/gcc/arm gnu toolchain arm-none-eabi/12.2 rel1/bin/../lib/gcc/arm-none-eabi/12.2.1/thumb/v7+fp/hard\libg_nano.a(libc_a-locale.o)
 .text.__locale_mb_cur_max
                0x00000000        0xc d:/program files/gcc/arm gnu toolchain arm-none-eabi/12.2 rel1/bin/../lib/gcc/arm-none-eabi/12.2.1/thumb/v7+fp/hard\libg_nano.a(libc_a-locale.o)
 .text.setlocale
                0x00000000       0x10 d:/program files/gcc/arm gnu toolchain arm-none-eabi/12.2 rel1/bin/../lib/gcc/arm-none-eabi/12.2.1/thumb/v7+fp/hard\libg_nano.a(libc_a-locale.o)
 .bss._PathLocale
                0x00000000        0x4 d:/program files/gcc/arm gnu toolchain arm-none-eabi/12.2 rel1/bin/../lib/gcc/arm-none-eabi/12.2.1/thumb/v7+fp/hard\libg_nano.a(libc_a-locale.o)
 .text          0x00000000        0x0 d:/program files/gcc/arm gnu toolchain arm-none-eabi/12.2 rel1/bin/../lib/gcc/arm-none-eabi/12.2.1/thumb/v7+fp/hard\libg_nano.a(libc_a-closer.o)
 .data          0x00000000        0x0 d:/program files/gcc/arm gnu toolchain arm-none-eabi/12.2 rel1/bin/../lib/gcc/arm-none-eabi/12.2.1/thumb/v7+fp/hard\libg_nano.a(libc_a-closer.o)
 .bss           0x00000000        0x0 d:/program files/gcc/arm gnu toolchain arm-none-eabi/12.2 rel1/bin/../lib/gcc/arm-none-eabi/12.2.1/thumb/v7+fp/hard\libg_nano.a(libc_a-closer.o)
 .text          0x00000000        0x0 d:/program files/gcc/arm gnu toolchain arm-none-eabi/12.2 rel1/bin/../lib/gcc/arm-none-eabi/12.2.1/thumb/v7+fp/hard\libg_nano.a(libc_a-reent.o)
 .data          0x00000000        0x0 d:/program files/gcc/arm gnu toolchain arm-none-eabi/12.2 rel1/bin/../lib/gcc/arm-none-eabi/12.2.1/thumb/v7+fp/hard\libg_nano.a(libc_a-reent.o)
 .bss           0x00000000        0x0 d:/program files/gcc/arm gnu toolchain arm-none-eabi/12.2 rel1/bin/../lib/gcc/arm-none-eabi/12.2.1/thumb/v7+fp/hard\libg_nano.a(libc_a-reent.o)
 .text._reclaim_reent
                0x00000000       0xac d:/program files/gcc/arm gnu toolchain arm-none-eabi/12.2 rel1/bin/../lib/gcc/arm-none-eabi/12.2.1/thumb/v7+fp/hard\libg_nano.a(libc_a-reent.o)
 .text          0x00000000        0x0 d:/program files/gcc/arm gnu toolchain arm-none-eabi/12.2 rel1/bin/../lib/gcc/arm-none-eabi/12.2.1/thumb/v7+fp/hard\libg_nano.a(libc_a-fstatr.o)
 .data          0x00000000        0x0 d:/program files/gcc/arm gnu toolchain arm-none-eabi/12.2 rel1/bin/../lib/gcc/arm-none-eabi/12.2.1/thumb/v7+fp/hard\libg_nano.a(libc_a-fstatr.o)
 .bss           0x00000000        0x0 d:/program files/gcc/arm gnu toolchain arm-none-eabi/12.2 rel1/bin/../lib/gcc/arm-none-eabi/12.2.1/thumb/v7+fp/hard\libg_nano.a(libc_a-fstatr.o)
 .text          0x00000000        0x0 d:/program files/gcc/arm gnu toolchain arm-none-eabi/12.2 rel1/bin/../lib/gcc/arm-none-eabi/12.2.1/thumb/v7+fp/hard\libg_nano.a(libc_a-isattyr.o)
 .data          0x00000000        0x0 d:/program files/gcc/arm gnu toolchain arm-none-eabi/12.2 rel1/bin/../lib/gcc/arm-none-eabi/12.2.1/thumb/v7+fp/hard\libg_nano.a(libc_a-isattyr.o)
 .bss           0x00000000        0x0 d:/program files/gcc/arm gnu toolchain arm-none-eabi/12.2 rel1/bin/../lib/gcc/arm-none-eabi/12.2.1/thumb/v7+fp/hard\libg_nano.a(libc_a-isattyr.o)
 .text          0x00000000        0x0 d:/program files/gcc/arm gnu toolchain arm-none-eabi/12.2 rel1/bin/../lib/gcc/arm-none-eabi/12.2.1/thumb/v7+fp/hard\libg_nano.a(libc_a-lseekr.o)
 .data          0x00000000        0x0 d:/program files/gcc/arm gnu toolchain arm-none-eabi/12.2 rel1/bin/../lib/gcc/arm-none-eabi/12.2.1/thumb/v7+fp/hard\libg_nano.a(libc_a-lseekr.o)
 .bss           0x00000000        0x0 d:/program files/gcc/arm gnu toolchain arm-none-eabi/12.2 rel1/bin/../lib/gcc/arm-none-eabi/12.2.1/thumb/v7+fp/hard\libg_nano.a(libc_a-lseekr.o)
 .text          0x00000000        0x0 d:/program files/gcc/arm gnu toolchain arm-none-eabi/12.2 rel1/bin/../lib/gcc/arm-none-eabi/12.2.1/thumb/v7+fp/hard\libg_nano.a(libc_a-readr.o)
 .data          0x00000000        0x0 d:/program files/gcc/arm gnu toolchain arm-none-eabi/12.2 rel1/bin/../lib/gcc/arm-none-eabi/12.2.1/thumb/v7+fp/hard\libg_nano.a(libc_a-readr.o)
 .bss           0x00000000        0x0 d:/program files/gcc/arm gnu toolchain arm-none-eabi/12.2 rel1/bin/../lib/gcc/arm-none-eabi/12.2.1/thumb/v7+fp/hard\libg_nano.a(libc_a-readr.o)
 .text          0x00000000        0x0 d:/program files/gcc/arm gnu toolchain arm-none-eabi/12.2 rel1/bin/../lib/gcc/arm-none-eabi/12.2.1/thumb/v7+fp/hard\libg_nano.a(libc_a-writer.o)
 .data          0x00000000        0x0 d:/program files/gcc/arm gnu toolchain arm-none-eabi/12.2 rel1/bin/../lib/gcc/arm-none-eabi/12.2.1/thumb/v7+fp/hard\libg_nano.a(libc_a-writer.o)
 .bss           0x00000000        0x0 d:/program files/gcc/arm gnu toolchain arm-none-eabi/12.2 rel1/bin/../lib/gcc/arm-none-eabi/12.2.1/thumb/v7+fp/hard\libg_nano.a(libc_a-writer.o)
 .text          0x00000000       0x14 d:/program files/gcc/arm gnu toolchain arm-none-eabi/12.2 rel1/bin/../lib/gcc/arm-none-eabi/12.2.1/thumb/v7+fp/hard\libg_nano.a(libc_a-strcmp.o)
 .data          0x00000000        0x0 d:/program files/gcc/arm gnu toolchain arm-none-eabi/12.2 rel1/bin/../lib/gcc/arm-none-eabi/12.2.1/thumb/v7+fp/hard\libg_nano.a(libc_a-strcmp.o)
 .bss           0x00000000        0x0 d:/program files/gcc/arm gnu toolchain arm-none-eabi/12.2 rel1/bin/../lib/gcc/arm-none-eabi/12.2.1/thumb/v7+fp/hard\libg_nano.a(libc_a-strcmp.o)
 .debug_line_str
                0x00000000       0xe7 d:/program files/gcc/arm gnu toolchain arm-none-eabi/12.2 rel1/bin/../lib/gcc/arm-none-eabi/12.2.1/thumb/v7+fp/hard\libg_nano.a(libc_a-strcmp.o)
 .debug_frame   0x00000000       0x20 d:/program files/gcc/arm gnu toolchain arm-none-eabi/12.2 rel1/bin/../lib/gcc/arm-none-eabi/12.2.1/thumb/v7+fp/hard\libg_nano.a(libc_a-strcmp.o)
 .ARM.attributes
                0x00000000       0x19 d:/program files/gcc/arm gnu toolchain arm-none-eabi/12.2 rel1/bin/../lib/gcc/arm-none-eabi/12.2.1/thumb/v7+fp/hard\libg_nano.a(libc_a-strcmp.o)
 .text          0x00000000        0x0 d:/program files/gcc/arm gnu toolchain arm-none-eabi/12.2 rel1/bin/../lib/gcc/arm-none-eabi/12.2.1/thumb/v7+fp/hard\libg_nano.a(libc_a-assert.o)
 .data          0x00000000        0x0 d:/program files/gcc/arm gnu toolchain arm-none-eabi/12.2 rel1/bin/../lib/gcc/arm-none-eabi/12.2.1/thumb/v7+fp/hard\libg_nano.a(libc_a-assert.o)
 .bss           0x00000000        0x0 d:/program files/gcc/arm gnu toolchain arm-none-eabi/12.2 rel1/bin/../lib/gcc/arm-none-eabi/12.2.1/thumb/v7+fp/hard\libg_nano.a(libc_a-assert.o)
 .text.__assert
                0x00000000        0xa d:/program files/gcc/arm gnu toolchain arm-none-eabi/12.2 rel1/bin/../lib/gcc/arm-none-eabi/12.2.1/thumb/v7+fp/hard\libg_nano.a(libc_a-assert.o)
 .text          0x00000000        0x0 d:/program files/gcc/arm gnu toolchain arm-none-eabi/12.2 rel1/bin/../lib/gcc/arm-none-eabi/12.2.1/thumb/v7+fp/hard\libg_nano.a(libc_a-callocr.o)
 .data          0x00000000        0x0 d:/program files/gcc/arm gnu toolchain arm-none-eabi/12.2 rel1/bin/../lib/gcc/arm-none-eabi/12.2.1/thumb/v7+fp/hard\libg_nano.a(libc_a-callocr.o)
 .bss           0x00000000        0x0 d:/program files/gcc/arm gnu toolchain arm-none-eabi/12.2 rel1/bin/../lib/gcc/arm-none-eabi/12.2.1/thumb/v7+fp/hard\libg_nano.a(libc_a-callocr.o)
 .text          0x00000000        0x0 d:/program files/gcc/arm gnu toolchain arm-none-eabi/12.2 rel1/bin/../lib/gcc/arm-none-eabi/12.2.1/thumb/v7+fp/hard\libg_nano.a(libc_a-mbtowc_r.o)
 .data          0x00000000        0x0 d:/program files/gcc/arm gnu toolchain arm-none-eabi/12.2 rel1/bin/../lib/gcc/arm-none-eabi/12.2.1/thumb/v7+fp/hard\libg_nano.a(libc_a-mbtowc_r.o)
 .bss           0x00000000        0x0 d:/program files/gcc/arm gnu toolchain arm-none-eabi/12.2 rel1/bin/../lib/gcc/arm-none-eabi/12.2.1/thumb/v7+fp/hard\libg_nano.a(libc_a-mbtowc_r.o)
 .text._mbtowc_r
                0x00000000       0x14 d:/program files/gcc/arm gnu toolchain arm-none-eabi/12.2 rel1/bin/../lib/gcc/arm-none-eabi/12.2.1/thumb/v7+fp/hard\libg_nano.a(libc_a-mbtowc_r.o)
 .text          0x00000000        0x0 d:/program files/gcc/arm gnu toolchain arm-none-eabi/12.2 rel1/bin/../lib/gcc/arm-none-eabi/12.2.1/thumb/v7+fp/hard\libg_nano.a(libc_a-reallocr.o)
 .data          0x00000000        0x0 d:/program files/gcc/arm gnu toolchain arm-none-eabi/12.2 rel1/bin/../lib/gcc/arm-none-eabi/12.2.1/thumb/v7+fp/hard\libg_nano.a(libc_a-reallocr.o)
 .bss           0x00000000        0x0 d:/program files/gcc/arm gnu toolchain arm-none-eabi/12.2 rel1/bin/../lib/gcc/arm-none-eabi/12.2.1/thumb/v7+fp/hard\libg_nano.a(libc_a-reallocr.o)
 .text._realloc_r
                0x00000000       0x5c d:/program files/gcc/arm gnu toolchain arm-none-eabi/12.2 rel1/bin/../lib/gcc/arm-none-eabi/12.2.1/thumb/v7+fp/hard\libg_nano.a(libc_a-reallocr.o)
 .debug_frame   0x00000000       0x3c d:/program files/gcc/arm gnu toolchain arm-none-eabi/12.2 rel1/bin/../lib/gcc/arm-none-eabi/12.2.1/thumb/v7+fp/hard\libg_nano.a(libc_a-reallocr.o)
 .ARM.attributes
                0x00000000       0x2d d:/program files/gcc/arm gnu toolchain arm-none-eabi/12.2 rel1/bin/../lib/gcc/arm-none-eabi/12.2.1/thumb/v7+fp/hard\libg_nano.a(libc_a-reallocr.o)
 .text          0x00000000        0x0 d:/program files/gcc/arm gnu toolchain arm-none-eabi/12.2 rel1/bin/../lib/gcc/arm-none-eabi/12.2.1/thumb/v7+fp/hard\libg_nano.a(libc_a-wctomb_r.o)
 .data          0x00000000        0x0 d:/program files/gcc/arm gnu toolchain arm-none-eabi/12.2 rel1/bin/../lib/gcc/arm-none-eabi/12.2.1/thumb/v7+fp/hard\libg_nano.a(libc_a-wctomb_r.o)
 .bss           0x00000000        0x0 d:/program files/gcc/arm gnu toolchain arm-none-eabi/12.2 rel1/bin/../lib/gcc/arm-none-eabi/12.2.1/thumb/v7+fp/hard\libg_nano.a(libc_a-wctomb_r.o)
 .text._wctomb_r
                0x00000000       0x14 d:/program files/gcc/arm gnu toolchain arm-none-eabi/12.2 rel1/bin/../lib/gcc/arm-none-eabi/12.2.1/thumb/v7+fp/hard\libg_nano.a(libc_a-wctomb_r.o)
 .text          0x00000000        0x0 d:/program files/gcc/arm gnu toolchain arm-none-eabi/12.2 rel1/bin/../lib/gcc/arm-none-eabi/12.2.1/thumb/v7+fp/hard\libg_nano.a(libc_a-ctype_.o)
 .data          0x00000000        0x0 d:/program files/gcc/arm gnu toolchain arm-none-eabi/12.2 rel1/bin/../lib/gcc/arm-none-eabi/12.2.1/thumb/v7+fp/hard\libg_nano.a(libc_a-ctype_.o)
 .bss           0x00000000        0x0 d:/program files/gcc/arm gnu toolchain arm-none-eabi/12.2 rel1/bin/../lib/gcc/arm-none-eabi/12.2.1/thumb/v7+fp/hard\libg_nano.a(libc_a-ctype_.o)
 .text          0x00000000        0x0 d:/program files/gcc/arm gnu toolchain arm-none-eabi/12.2 rel1/bin/../lib/gcc/arm-none-eabi/12.2.1/thumb/v7+fp/hard\libg_nano.a(libc_a-fprintf.o)
 .data          0x00000000        0x0 d:/program files/gcc/arm gnu toolchain arm-none-eabi/12.2 rel1/bin/../lib/gcc/arm-none-eabi/12.2.1/thumb/v7+fp/hard\libg_nano.a(libc_a-fprintf.o)
 .bss           0x00000000        0x0 d:/program files/gcc/arm gnu toolchain arm-none-eabi/12.2 rel1/bin/../lib/gcc/arm-none-eabi/12.2.1/thumb/v7+fp/hard\libg_nano.a(libc_a-fprintf.o)
 .text._fprintf_r
                0x00000000       0x1a d:/program files/gcc/arm gnu toolchain arm-none-eabi/12.2 rel1/bin/../lib/gcc/arm-none-eabi/12.2.1/thumb/v7+fp/hard\libg_nano.a(libc_a-fprintf.o)
 .text          0x00000000        0x0 d:/program files/gcc/arm gnu toolchain arm-none-eabi/12.2 rel1/bin/../lib/gcc/arm-none-eabi/12.2.1/thumb/v7+fp/hard\libg_nano.a(libc_a-abort.o)
 .data          0x00000000        0x0 d:/program files/gcc/arm gnu toolchain arm-none-eabi/12.2 rel1/bin/../lib/gcc/arm-none-eabi/12.2.1/thumb/v7+fp/hard\libg_nano.a(libc_a-abort.o)
 .bss           0x00000000        0x0 d:/program files/gcc/arm gnu toolchain arm-none-eabi/12.2 rel1/bin/../lib/gcc/arm-none-eabi/12.2.1/thumb/v7+fp/hard\libg_nano.a(libc_a-abort.o)
 .text          0x00000000        0x0 d:/program files/gcc/arm gnu toolchain arm-none-eabi/12.2 rel1/bin/../lib/gcc/arm-none-eabi/12.2.1/thumb/v7+fp/hard\libg_nano.a(libc_a-msizer.o)
 .data          0x00000000        0x0 d:/program files/gcc/arm gnu toolchain arm-none-eabi/12.2 rel1/bin/../lib/gcc/arm-none-eabi/12.2.1/thumb/v7+fp/hard\libg_nano.a(libc_a-msizer.o)
 .bss           0x00000000        0x0 d:/program files/gcc/arm gnu toolchain arm-none-eabi/12.2 rel1/bin/../lib/gcc/arm-none-eabi/12.2.1/thumb/v7+fp/hard\libg_nano.a(libc_a-msizer.o)
 .text._malloc_usable_size_r
                0x00000000       0x10 d:/program files/gcc/arm gnu toolchain arm-none-eabi/12.2 rel1/bin/../lib/gcc/arm-none-eabi/12.2.1/thumb/v7+fp/hard\libg_nano.a(libc_a-msizer.o)
 .debug_frame   0x00000000       0x20 d:/program files/gcc/arm gnu toolchain arm-none-eabi/12.2 rel1/bin/../lib/gcc/arm-none-eabi/12.2.1/thumb/v7+fp/hard\libg_nano.a(libc_a-msizer.o)
 .ARM.attributes
                0x00000000       0x2d d:/program files/gcc/arm gnu toolchain arm-none-eabi/12.2 rel1/bin/../lib/gcc/arm-none-eabi/12.2.1/thumb/v7+fp/hard\libg_nano.a(libc_a-msizer.o)
 .text          0x00000000        0x0 d:/program files/gcc/arm gnu toolchain arm-none-eabi/12.2 rel1/bin/../lib/gcc/arm-none-eabi/12.2.1/thumb/v7+fp/hard\libg_nano.a(libc_a-signal.o)
 .data          0x00000000        0x0 d:/program files/gcc/arm gnu toolchain arm-none-eabi/12.2 rel1/bin/../lib/gcc/arm-none-eabi/12.2.1/thumb/v7+fp/hard\libg_nano.a(libc_a-signal.o)
 .bss           0x00000000        0x0 d:/program files/gcc/arm gnu toolchain arm-none-eabi/12.2 rel1/bin/../lib/gcc/arm-none-eabi/12.2.1/thumb/v7+fp/hard\libg_nano.a(libc_a-signal.o)
 .text._init_signal_r
                0x00000000       0x28 d:/program files/gcc/arm gnu toolchain arm-none-eabi/12.2 rel1/bin/../lib/gcc/arm-none-eabi/12.2.1/thumb/v7+fp/hard\libg_nano.a(libc_a-signal.o)
 .text._signal_r
                0x00000000       0x30 d:/program files/gcc/arm gnu toolchain arm-none-eabi/12.2 rel1/bin/../lib/gcc/arm-none-eabi/12.2.1/thumb/v7+fp/hard\libg_nano.a(libc_a-signal.o)
 .text.__sigtramp_r
                0x00000000       0x48 d:/program files/gcc/arm gnu toolchain arm-none-eabi/12.2 rel1/bin/../lib/gcc/arm-none-eabi/12.2.1/thumb/v7+fp/hard\libg_nano.a(libc_a-signal.o)
 .text.signal   0x00000000       0x10 d:/program files/gcc/arm gnu toolchain arm-none-eabi/12.2 rel1/bin/../lib/gcc/arm-none-eabi/12.2.1/thumb/v7+fp/hard\libg_nano.a(libc_a-signal.o)
 .text._init_signal
                0x00000000        0xc d:/program files/gcc/arm gnu toolchain arm-none-eabi/12.2 rel1/bin/../lib/gcc/arm-none-eabi/12.2.1/thumb/v7+fp/hard\libg_nano.a(libc_a-signal.o)
 .text.__sigtramp
                0x00000000       0x10 d:/program files/gcc/arm gnu toolchain arm-none-eabi/12.2 rel1/bin/../lib/gcc/arm-none-eabi/12.2.1/thumb/v7+fp/hard\libg_nano.a(libc_a-signal.o)
 .text          0x00000000        0x0 d:/program files/gcc/arm gnu toolchain arm-none-eabi/12.2 rel1/bin/../lib/gcc/arm-none-eabi/12.2.1/thumb/v7+fp/hard\libg_nano.a(libc_a-signalr.o)
 .data          0x00000000        0x0 d:/program files/gcc/arm gnu toolchain arm-none-eabi/12.2 rel1/bin/../lib/gcc/arm-none-eabi/12.2.1/thumb/v7+fp/hard\libg_nano.a(libc_a-signalr.o)
 .bss           0x00000000        0x0 d:/program files/gcc/arm gnu toolchain arm-none-eabi/12.2 rel1/bin/../lib/gcc/arm-none-eabi/12.2.1/thumb/v7+fp/hard\libg_nano.a(libc_a-signalr.o)
 .data          0x00000000        0x0 d:/program files/gcc/arm gnu toolchain arm-none-eabi/12.2 rel1/bin/../lib/gcc/arm-none-eabi/12.2.1/thumb/v7+fp/hard\libgcc.a(_udivsi3.o)
 .bss           0x00000000        0x0 d:/program files/gcc/arm gnu toolchain arm-none-eabi/12.2 rel1/bin/../lib/gcc/arm-none-eabi/12.2.1/thumb/v7+fp/hard\libgcc.a(_udivsi3.o)
 .data          0x00000000        0x0 d:/program files/gcc/arm gnu toolchain arm-none-eabi/12.2 rel1/bin/../lib/gcc/arm-none-eabi/12.2.1/thumb/v7+fp/hard\libgcc.a(_divsi3.o)
 .bss           0x00000000        0x0 d:/program files/gcc/arm gnu toolchain arm-none-eabi/12.2 rel1/bin/../lib/gcc/arm-none-eabi/12.2.1/thumb/v7+fp/hard\libgcc.a(_divsi3.o)

Memory Configuration

Name             Origin             Length             Attributes
ATCM             0x00000000         0x00020000
BTCM             0x00100000         0x00020000
SYSTEM_RAM       0x10000000         0x00180000
SYSTEM_RAM_MIRROR 0x30000000         0x00180000
xSPI0_CS0_SPACE_MIRROR 0x40000000         0x04000000
xSPI0_CS1_SPACE_MIRROR 0x44000000         0x04000000
xSPI1_CS0_SPACE_MIRROR 0x48000000         0x04000000
xSPI1_CS1_SPACE_MIRROR 0x00000000         0x00000000
CS0_SPACE_MIRROR 0x50000000         0x04000000
CS2_SPACE_MIRROR 0x54000000         0x04000000
CS3_SPACE_MIRROR 0x58000000         0x04000000
CS5_SPACE_MIRROR 0x5c000000         0x04000000
xSPI0_CS0_SPACE  0x60000000         0x04000000
xSPI0_CS1_SPACE  0x64000000         0x04000000
xSPI1_CS0_SPACE  0x68000000         0x04000000
xSPI1_CS1_SPACE  0x00000000         0x00000000
CS0_SPACE        0x70000000         0x04000000
CS2_SPACE        0x74000000         0x04000000
CS3_SPACE        0x78000000         0x04000000
CS5_SPACE        0x7c000000         0x04000000
RAM              0x00000000         0x00020000
LOADER_STACK     0x00100000         0x00020000
DUMMY            0x00000000         0x00020000
DATA_NONCACHE    0x30138000         0x00004000
DMAC_LINK_MODE   0x3013c000         0x00004000
SHARED_NONCACHE_BUFFER 0x30140000         0x00020000
NONCACHE_BUFFER  0x30160000         0x00020000
*default*        0x00000000         0xffffffff

Linker script and memory map

START GROUP
LOAD ./src/ethercat/renesas/sampleappl.o
LOAD ./src/ethercat/renesas/samplecia402.o
LOAD ./src/ethercat/renesas/samplefoe.o
LOAD ./src/ethercat/renesas/sampleios.o
LOAD ./src/ethercat/renesas/samplesemi.o
LOAD ./src/ethercat/beckhoff/Src/bootmode.o
LOAD ./src/ethercat/beckhoff/Src/cia402appl.o
LOAD ./src/ethercat/beckhoff/Src/coeappl.o
LOAD ./src/ethercat/beckhoff/Src/ecatappl.o
LOAD ./src/ethercat/beckhoff/Src/ecatcoe.o
LOAD ./src/ethercat/beckhoff/Src/ecatfoe.o
LOAD ./src/ethercat/beckhoff/Src/ecatslv.o
LOAD ./src/ethercat/beckhoff/Src/foeappl.o
LOAD ./src/ethercat/beckhoff/Src/mailbox.o
LOAD ./src/ethercat/beckhoff/Src/objdef.o
LOAD ./src/ethercat/beckhoff/Src/sdoserv.o
LOAD ./src/common/app_config.o
LOAD ./src/common/bank_config.o
LOAD ./src/common/bank_detection.o
LOAD ./src/common/boot_config_cmd.o
LOAD ./src/common/bsp_r52_global_counter.o
LOAD ./src/common/circular_queue.o
LOAD ./src/common/crc32_table.o
LOAD ./src/common/loader_table_manager.o
LOAD ./src/common/sbl_boot_params.o
LOAD ./src/common/sbl_params.o
LOAD ./src/hal_entry.o
LOAD ./src/syscall.o
LOAD ./rzn_gen/common_data.o
LOAD ./rzn_gen/hal_data.o
LOAD ./rzn_gen/main.o
LOAD ./rzn_gen/pin_data.o
LOAD ./rzn_gen/vector_data.o
LOAD ./rzn/fsp/src/rm_ethercat_ssc_port/rm_ethercat_ssc_port.o
LOAD ./rzn/fsp/src/r_xspi_qspi/r_xspi_qspi.o
LOAD ./rzn/fsp/src/r_sci_uart/r_sci_uart.o
LOAD ./rzn/fsp/src/r_ioport/r_ioport.o
LOAD ./rzn/fsp/src/r_ether_selector/r_ether_selector.o
LOAD ./rzn/fsp/src/r_ether_phy/r_ether_phy.o
LOAD ./rzn/fsp/src/r_cmt/r_cmt.o
LOAD ./rzn/fsp/src/bsp/mcu/rzn2l/bsp_irq_sense.o
LOAD ./rzn/fsp/src/bsp/mcu/rzn2l/bsp_loader_param.o
LOAD ./rzn/fsp/src/bsp/mcu/all/cr/bsp_cache_core.o
LOAD ./rzn/fsp/src/bsp/mcu/all/cr/bsp_delay_core.o
LOAD ./rzn/fsp/src/bsp/mcu/all/cr/bsp_irq_core.o
LOAD ./rzn/fsp/src/bsp/mcu/all/bsp_cache.o
LOAD ./rzn/fsp/src/bsp/mcu/all/bsp_clocks.o
LOAD ./rzn/fsp/src/bsp/mcu/all/bsp_common.o
LOAD ./rzn/fsp/src/bsp/mcu/all/bsp_delay.o
LOAD ./rzn/fsp/src/bsp/mcu/all/bsp_io.o
LOAD ./rzn/fsp/src/bsp/mcu/all/bsp_irq.o
LOAD ./rzn/fsp/src/bsp/mcu/all/bsp_register_protection.o
LOAD ./rzn/fsp/src/bsp/mcu/all/bsp_reset.o
LOAD ./rzn/fsp/src/bsp/mcu/all/bsp_sbrk.o
LOAD ./rzn/fsp/src/bsp/cmsis/Device/RENESAS/Source/cr/startup_core.o
LOAD ./rzn/fsp/src/bsp/cmsis/Device/RENESAS/Source/cr/system_core.o
LOAD ./rzn/fsp/src/bsp/cmsis/Device/RENESAS/Source/startup.o
LOAD ./rzn/fsp/src/bsp/cmsis/Device/RENESAS/Source/system.o
LOAD ./rzn/board/rzn2l_rsk/board_init.o
LOAD ./rzn/board/rzn2l_rsk/board_leds.o
END GROUP
START GROUP
END GROUP
START GROUP
LOAD d:/program files/gcc/arm gnu toolchain arm-none-eabi/12.2 rel1/bin/../lib/gcc/arm-none-eabi/12.2.1/thumb/v7+fp/hard\libgcc.a
LOAD d:/program files/gcc/arm gnu toolchain arm-none-eabi/12.2 rel1/bin/../lib/gcc/arm-none-eabi/12.2.1/thumb/v7+fp/hard\libg_nano.a
LOAD d:/program files/gcc/arm gnu toolchain arm-none-eabi/12.2 rel1/bin/../lib/gcc/arm-none-eabi/12.2.1/thumb/v7+fp/hard\libc_nano.a
END GROUP
START GROUP
LOAD d:/program files/gcc/arm gnu toolchain arm-none-eabi/12.2 rel1/bin/../lib/gcc/arm-none-eabi/12.2.1/thumb/v7+fp/hard\libgcc.a
LOAD d:/program files/gcc/arm gnu toolchain arm-none-eabi/12.2 rel1/bin/../lib/gcc/arm-none-eabi/12.2.1/thumb/v7+fp/hard\libc_nano.a
LOAD d:/program files/gcc/arm gnu toolchain arm-none-eabi/12.2 rel1/bin/../lib/gcc/arm-none-eabi/12.2.1/thumb/v7+fp/hard\libnosys.a
END GROUP
START GROUP
LOAD d:/program files/gcc/arm gnu toolchain arm-none-eabi/12.2 rel1/bin/../lib/gcc/arm-none-eabi/12.2.1/thumb/v7+fp/hard\libgcc.a
LOAD d:/program files/gcc/arm gnu toolchain arm-none-eabi/12.2 rel1/bin/../lib/gcc/arm-none-eabi/12.2.1/thumb/v7+fp/hard\libc_nano.a
LOAD d:/program files/gcc/arm gnu toolchain arm-none-eabi/12.2 rel1/bin/../lib/gcc/arm-none-eabi/12.2.1/thumb/v7+fp/hard\libnosys.a
END GROUP
                0x00000000                ATCM_START = 0x0
                0x00020000                ATCM_LENGTH = 0x20000
                0x00100000                BTCM_START = 0x100000
                0x00020000                BTCM_LENGTH = 0x20000
                0x10000000                SYSTEM_RAM_START = 0x10000000
                0x00180000                SYSTEM_RAM_LENGTH = 0x180000
                0x30000000                SYSTEM_RAM_MIRROR_START = 0x30000000
                0x00180000                SYSTEM_RAM_MIRROR_LENGTH = 0x180000
                0x40000000                xSPI0_CS0_SPACE_MIRROR_START = 0x40000000
                0x04000000                xSPI0_CS0_SPACE_MIRROR_LENGTH = 0x4000000
                0x44000000                xSPI0_CS1_SPACE_MIRROR_START = 0x44000000
                0x04000000                xSPI0_CS1_SPACE_MIRROR_LENGTH = 0x4000000
                0x48000000                xSPI1_CS0_SPACE_MIRROR_START = 0x48000000
                0x04000000                xSPI1_CS0_SPACE_MIRROR_LENGTH = 0x4000000
                0x50000000                CS0_SPACE_MIRROR_START = 0x50000000
                0x04000000                CS0_SPACE_MIRROR_LENGTH = 0x4000000
                0x54000000                CS2_SPACE_MIRROR_START = 0x54000000
                0x04000000                CS2_SPACE_MIRROR_LENGTH = 0x4000000
                0x58000000                CS3_SPACE_MIRROR_START = 0x58000000
                0x04000000                CS3_SPACE_MIRROR_LENGTH = 0x4000000
                0x5c000000                CS5_SPACE_MIRROR_START = 0x5c000000
                0x04000000                CS5_SPACE_MIRROR_LENGTH = 0x4000000
                0x60000000                xSPI0_CS0_SPACE_START = 0x60000000
                0x04000000                xSPI0_CS0_SPACE_LENGTH = 0x4000000
                0x64000000                xSPI0_CS1_SPACE_START = 0x64000000
                0x04000000                xSPI0_CS1_SPACE_LENGTH = 0x4000000
                0x68000000                xSPI1_CS0_SPACE_START = 0x68000000
                0x04000000                xSPI1_CS0_SPACE_LENGTH = 0x4000000
                0x70000000                CS0_SPACE_START = 0x70000000
                0x04000000                CS0_SPACE_LENGTH = 0x4000000
                0x74000000                CS2_SPACE_START = 0x74000000
                0x04000000                CS2_SPACE_LENGTH = 0x4000000
                0x78000000                CS3_SPACE_START = 0x78000000
                0x04000000                CS3_SPACE_LENGTH = 0x4000000
                0x7c000000                CS5_SPACE_START = 0x7c000000
                0x04000000                CS5_SPACE_LENGTH = 0x4000000
                0x00000000                ATCM_PRV_START = DEFINED (ATCM_START)?ATCM_START:0x0
                0x00020000                ATCM_PRV_LENGTH = DEFINED (ATCM_LENGTH)?ATCM_LENGTH:0x0
                0x00100000                BTCM_PRV_START = DEFINED (BTCM_START)?BTCM_START:0x0
                0x00020000                BTCM_PRV_LENGTH = DEFINED (BTCM_LENGTH)?BTCM_LENGTH:0x0
                0x10000000                SYSTEM_RAM_PRV_START = DEFINED (SYSTEM_RAM_START)?SYSTEM_RAM_START:0x0
                0x00180000                SYSTEM_RAM_PRV_LENGTH = DEFINED (SYSTEM_RAM_LENGTH)?SYSTEM_RAM_LENGTH:0x0
                0x30000000                SYSTEM_RAM_MIRROR_PRV_START = DEFINED (SYSTEM_RAM_MIRROR_START)?SYSTEM_RAM_MIRROR_START:0x0
                0x00180000                SYSTEM_RAM_MIRROR_PRV_LENGTH = DEFINED (SYSTEM_RAM_MIRROR_LENGTH)?SYSTEM_RAM_MIRROR_LENGTH:0x0
                0x40000000                xSPI0_CS0_SPACE_MIRROR_PRV_START = DEFINED (xSPI0_CS0_SPACE_MIRROR_START)?xSPI0_CS0_SPACE_MIRROR_START:0x0
                0x04000000                xSPI0_CS0_SPACE_MIRROR_PRV_LENGTH = DEFINED (xSPI0_CS0_SPACE_MIRROR_LENGTH)?xSPI0_CS0_SPACE_MIRROR_LENGTH:0x0
                0x44000000                xSPI0_CS1_SPACE_MIRROR_PRV_START = DEFINED (xSPI0_CS1_SPACE_MIRROR_START)?xSPI0_CS1_SPACE_MIRROR_START:0x0
                0x04000000                xSPI0_CS1_SPACE_MIRROR_PRV_LENGTH = DEFINED (xSPI0_CS1_SPACE_MIRROR_LENGTH)?xSPI0_CS1_SPACE_MIRROR_LENGTH:0x0
                0x48000000                xSPI1_CS0_SPACE_MIRROR_PRV_START = DEFINED (xSPI1_CS0_SPACE_MIRROR_START)?xSPI1_CS0_SPACE_MIRROR_START:0x0
                0x04000000                xSPI1_CS0_SPACE_MIRROR_PRV_LENGTH = DEFINED (xSPI1_CS0_SPACE_MIRROR_LENGTH)?xSPI1_CS0_SPACE_MIRROR_LENGTH:0x0
                0x00000000                xSPI1_CS1_SPACE_MIRROR_PRV_START = DEFINED (xSPI1_CS1_SPACE_MIRROR_START)?xSPI1_CS1_SPACE_MIRROR_START:0x0
                0x00000000                xSPI1_CS1_SPACE_MIRROR_PRV_LENGTH = DEFINED (xSPI1_CS1_SPACE_MIRROR_LENGTH)?xSPI1_CS1_SPACE_MIRROR_LENGTH:0x0
                0x50000000                CS0_SPACE_MIRROR_PRV_START = DEFINED (CS0_SPACE_MIRROR_START)?CS0_SPACE_MIRROR_START:0x0
                0x04000000                CS0_SPACE_MIRROR_PRV_LENGTH = DEFINED (CS0_SPACE_MIRROR_LENGTH)?CS0_SPACE_MIRROR_LENGTH:0x0
                0x54000000                CS2_SPACE_MIRROR_PRV_START = DEFINED (CS2_SPACE_MIRROR_START)?CS2_SPACE_MIRROR_START:0x0
                0x04000000                CS2_SPACE_MIRROR_PRV_LENGTH = DEFINED (CS2_SPACE_MIRROR_LENGTH)?CS2_SPACE_MIRROR_LENGTH:0x0
                0x58000000                CS3_SPACE_MIRROR_PRV_START = DEFINED (CS3_SPACE_MIRROR_START)?CS3_SPACE_MIRROR_START:0x0
                0x04000000                CS3_SPACE_MIRROR_PRV_LENGTH = DEFINED (CS3_SPACE_MIRROR_LENGTH)?CS3_SPACE_MIRROR_LENGTH:0x0
                0x5c000000                CS5_SPACE_MIRROR_PRV_START = DEFINED (CS5_SPACE_MIRROR_START)?CS5_SPACE_MIRROR_START:0x0
                0x04000000                CS5_SPACE_MIRROR_PRV_LENGTH = DEFINED (CS5_SPACE_MIRROR_LENGTH)?CS5_SPACE_MIRROR_LENGTH:0x0
                0x60000000                xSPI0_CS0_SPACE_PRV_START = DEFINED (xSPI0_CS0_SPACE_START)?xSPI0_CS0_SPACE_START:0x0
                0x04000000                xSPI0_CS0_SPACE_PRV_LENGTH = DEFINED (xSPI0_CS0_SPACE_LENGTH)?xSPI0_CS0_SPACE_LENGTH:0x0
                0x64000000                xSPI0_CS1_SPACE_PRV_START = DEFINED (xSPI0_CS1_SPACE_START)?xSPI0_CS1_SPACE_START:0x0
                0x04000000                xSPI0_CS1_SPACE_PRV_LENGTH = DEFINED (xSPI0_CS1_SPACE_LENGTH)?xSPI0_CS1_SPACE_LENGTH:0x0
                0x68000000                xSPI1_CS0_SPACE_PRV_START = DEFINED (xSPI1_CS0_SPACE_START)?xSPI1_CS0_SPACE_START:0x0
                0x04000000                xSPI1_CS0_SPACE_PRV_LENGTH = DEFINED (xSPI1_CS0_SPACE_LENGTH)?xSPI1_CS0_SPACE_LENGTH:0x0
                0x00000000                xSPI1_CS1_SPACE_PRV_START = DEFINED (xSPI1_CS1_SPACE_START)?xSPI1_CS1_SPACE_START:0x0
                0x00000000                xSPI1_CS1_SPACE_PRV_LENGTH = DEFINED (xSPI1_CS1_SPACE_LENGTH)?xSPI1_CS1_SPACE_LENGTH:0x0
                0x70000000                CS0_SPACE_PRV_START = DEFINED (CS0_SPACE_START)?CS0_SPACE_START:0x0
                0x04000000                CS0_SPACE_PRV_LENGTH = DEFINED (CS0_SPACE_LENGTH)?CS0_SPACE_LENGTH:0x0
                0x74000000                CS2_SPACE_PRV_START = DEFINED (CS2_SPACE_START)?CS2_SPACE_START:0x0
                0x04000000                CS2_SPACE_PRV_LENGTH = DEFINED (CS2_SPACE_LENGTH)?CS2_SPACE_LENGTH:0x0
                0x78000000                CS3_SPACE_PRV_START = DEFINED (CS3_SPACE_START)?CS3_SPACE_START:0x0
                0x04000000                CS3_SPACE_PRV_LENGTH = DEFINED (CS3_SPACE_LENGTH)?CS3_SPACE_LENGTH:0x0
                0x7c000000                CS5_SPACE_PRV_START = DEFINED (CS5_SPACE_START)?CS5_SPACE_START:0x0
                0x04000000                CS5_SPACE_PRV_LENGTH = DEFINED (CS5_SPACE_LENGTH)?CS5_SPACE_LENGTH:0x0
                0x60100000                BANK0_START_ADDRESS = 0x60100000
                0x60200000                BANK1_START_ADDRESS = 0x60200000
                0x60100000                HEADER_PARAM_ADDRESS = BANK0_START_ADDRESS
                0x6010004c                IDENTIFY_PARAM_ADDRESS = (HEADER_PARAM_ADDRESS + 0x4c)
                0x6010005c                FLASH_CONTENTS_ADDRESS = (IDENTIFY_PARAM_ADDRESS + 0x10)
                0x00020000                NONCACHE_BUFFER_OFFSET = 0x20000
                0x00044000                DMAC_LINK_MODE_OFFSET = 0x44000
                0x00048000                DATA_NONCACHE_OFFSET = 0x48000
                0x00000000                RAM_START = ATCM_PRV_START
                0x00020000                RAM_LENGTH = ATCM_PRV_LENGTH
                0x00100000                LOADER_START = BTCM_PRV_START
                0x00020000                LOADER_LENGTH = BTCM_PRV_LENGTH
                0x30138000                DATA_NONCACHE_START = DEFINED (SYSTEM_RAM_MIRROR_START)?((SYSTEM_RAM_MIRROR_START + SYSTEM_RAM_MIRROR_LENGTH) - DATA_NONCACHE_OFFSET):0x0
                0x00004000                DATA_NONCACHE_LENGTH = DEFINED (SYSTEM_RAM_MIRROR_LENGTH)?0x4000:0x0
                0x3013c000                DMAC_LINK_MODE_START = DEFINED (SYSTEM_RAM_MIRROR_START)?((SYSTEM_RAM_MIRROR_START + SYSTEM_RAM_MIRROR_LENGTH) - DMAC_LINK_MODE_OFFSET):0x0
                0x00004000                DMAC_LINK_MODE_LENGTH = DEFINED (SYSTEM_RAM_MIRROR_LENGTH)?0x4000:0x0
                0x30140000                SHARED_NONCACHE_BUFFER_START = DEFINED (SYSTEM_RAM_MIRROR_START)?((SYSTEM_RAM_MIRROR_START + SYSTEM_RAM_MIRROR_LENGTH) - 0x40000):0x0
                0x00020000                SHARED_NONCACHE_BUFFER_LENGTH = DEFINED (SYSTEM_RAM_MIRROR_LENGTH)?0x20000:0x0
                0x30160000                NONCACHE_BUFFER_START = DEFINED (SYSTEM_RAM_MIRROR_START)?((SYSTEM_RAM_MIRROR_START + SYSTEM_RAM_MIRROR_LENGTH) - NONCACHE_BUFFER_OFFSET):0x0
                0x00020000                NONCACHE_BUFFER_LENGTH = DEFINED (SYSTEM_RAM_MIRROR_LENGTH)?0x20000:0x0

.header_param   0x60100000       0x4c
 *(.header)
 .header        0x60100000       0x4c ./src/ethercat/beckhoff/Src/bootmode.o
                0x60100000                g_header

.identify_param
                0x6010004c       0x10
 *(.identify)
 .identify      0x6010004c       0x10 ./src/ethercat/beckhoff/Src/bootmode.o
                0x6010004c                g_identify

.flash_contents
                0x6010005c    0x12960
                0x6010005c                _mtext = .
                0x6010ecac                . = (. + (_text_end - _text_start))
 *fill*         0x6010005c     0xec50 
                0x6010ecac                _mdata = .
                0x601129bc                . = (. + (_data_end - _data_start))
 *fill*         0x6010ecac     0x3d10 
                0x601129bc                _mdata_noncache = .
                0x601129bc                . = (. + (_data_noncache_end - _data_noncache_start))
                0x601129bc                flash_contents_end = .

.text           0x10010000     0xec10 load address 0x6010005c
                0x10010000                _text_start = .
                0x10010000                _fvector_start = .
 *(.intvec)
 .intvec        0x10010000       0x40 ./rzn/fsp/src/bsp/cmsis/Device/RENESAS/Source/cr/startup_core.o
                0x10010000                __Vectors
                0x10010040                _fvector_end = .
 *(.text*)
 .text.APPL_AckErrorInd
                0x10010040        0x2 ./src/ethercat/renesas/sampleappl.o
                0x10010040                APPL_AckErrorInd
 .text.APPL_StartMailboxHandler
                0x10010042        0x4 ./src/ethercat/renesas/sampleappl.o
                0x10010042                APPL_StartMailboxHandler
 .text.APPL_StopMailboxHandler
                0x10010046        0x4 ./src/ethercat/renesas/sampleappl.o
                0x10010046                APPL_StopMailboxHandler
 .text.APPL_StartInputHandler
                0x1001004a       0xe8 ./src/ethercat/renesas/sampleappl.o
                0x1001004a                APPL_StartInputHandler
 .text.APPL_StopInputHandler
                0x10010132        0x4 ./src/ethercat/renesas/sampleappl.o
                0x10010132                APPL_StopInputHandler
 .text.APPL_StartOutputHandler
                0x10010136        0x4 ./src/ethercat/renesas/sampleappl.o
                0x10010136                APPL_StartOutputHandler
 .text.APPL_StopOutputHandler
                0x1001013a        0x4 ./src/ethercat/renesas/sampleappl.o
                0x1001013a                APPL_StopOutputHandler
 .text.APPL_GenerateMapping
                0x1001013e      0x292 ./src/ethercat/renesas/sampleappl.o
                0x1001013e                APPL_GenerateMapping
 .text.APPL_InputMapping
                0x100103d0      0x14e ./src/ethercat/renesas/sampleappl.o
                0x100103d0                APPL_InputMapping
 .text.APPL_OutputMapping
                0x1001051e      0x136 ./src/ethercat/renesas/sampleappl.o
                0x1001051e                APPL_OutputMapping
 .text.APPL_SetLed
                0x10010654       0xec ./src/ethercat/renesas/sampleappl.o
                0x10010654                APPL_SetLed
 .text.APPL_GetDipSw
                0x10010740      0x1be ./src/ethercat/renesas/sampleappl.o
                0x10010740                APPL_GetDipSw
 *fill*         0x100108fe        0x2 
 .text.APPL_Application
                0x10010900       0x50 ./src/ethercat/renesas/sampleappl.o
                0x10010900                APPL_Application
 .text.APPL_GetDeviceID
                0x10010950        0xc ./src/ethercat/renesas/sampleappl.o
                0x10010950                APPL_GetDeviceID
 .text.DummyMotor
                0x1001095c       0x68 ./src/ethercat/renesas/samplecia402.o
                0x1001095c                DummyMotor
 .text.CiA402_DummyMotionControl
                0x100109c4       0x9e ./src/ethercat/renesas/samplecia402.o
                0x100109c4                CiA402_DummyMotionControl
 .text.CiA402_StateTransition1
                0x10010a62        0x4 ./src/ethercat/renesas/samplecia402.o
                0x10010a62                CiA402_StateTransition1
 .text.CiA402_StateTransition2
                0x10010a66        0x4 ./src/ethercat/renesas/samplecia402.o
                0x10010a66                CiA402_StateTransition2
 .text.CiA402_StateTransition3
                0x10010a6a        0x4 ./src/ethercat/renesas/samplecia402.o
                0x10010a6a                CiA402_StateTransition3
 .text.CiA402_StateTransition4
                0x10010a6e        0x4 ./src/ethercat/renesas/samplecia402.o
                0x10010a6e                CiA402_StateTransition4
 .text.CiA402_StateTransition5
                0x10010a72        0x4 ./src/ethercat/renesas/samplecia402.o
                0x10010a72                CiA402_StateTransition5
 .text.CiA402_StateTransition6
                0x10010a76        0x4 ./src/ethercat/renesas/samplecia402.o
                0x10010a76                CiA402_StateTransition6
 .text.CiA402_StateTransition7
                0x10010a7a        0x4 ./src/ethercat/renesas/samplecia402.o
                0x10010a7a                CiA402_StateTransition7
 .text.CiA402_StateTransition8
                0x10010a7e        0x4 ./src/ethercat/renesas/samplecia402.o
                0x10010a7e                CiA402_StateTransition8
 .text.CiA402_StateTransition9
                0x10010a82        0x4 ./src/ethercat/renesas/samplecia402.o
                0x10010a82                CiA402_StateTransition9
 .text.CiA402_StateTransition10
                0x10010a86        0x4 ./src/ethercat/renesas/samplecia402.o
                0x10010a86                CiA402_StateTransition10
 .text.CiA402_StateTransition11
                0x10010a8a        0x4 ./src/ethercat/renesas/samplecia402.o
                0x10010a8a                CiA402_StateTransition11
 .text.CiA402_StateTransition12
                0x10010a8e        0x4 ./src/ethercat/renesas/samplecia402.o
                0x10010a8e                CiA402_StateTransition12
 .text.CiA402_StateTransition14
                0x10010a92        0x4 ./src/ethercat/renesas/samplecia402.o
                0x10010a92                CiA402_StateTransition14
 .text.CiA402_StateTransition15
                0x10010a96        0x4 ./src/ethercat/renesas/samplecia402.o
                0x10010a96                CiA402_StateTransition15
 .text.CiA402_StateTransition16
                0x10010a9a        0x4 ./src/ethercat/renesas/samplecia402.o
                0x10010a9a                CiA402_StateTransition16
 .text.APPL_MOTOR_MotionControl_Main
                0x10010a9e        0xa ./src/ethercat/renesas/samplecia402.o
                0x10010a9e                APPL_MOTOR_MotionControl_Main
 .text.FoE_Read
                0x10010aa8        0x2 ./src/ethercat/renesas/samplefoe.o
                0x10010aa8                FoE_Read
 .text.FoE_ReadData
                0x10010aaa        0x2 ./src/ethercat/renesas/samplefoe.o
                0x10010aaa                FoE_ReadData
 .text.FoE_WriteData
                0x10010aac       0x6e ./src/ethercat/renesas/samplefoe.o
                0x10010aac                FoE_WriteData
 .text.FoE_Write
                0x10010b1a       0xb0 ./src/ethercat/renesas/samplefoe.o
                0x10010b1a                FoE_Write
 .text.norFlashPageProgram
                0x10010bca       0x44 ./src/ethercat/beckhoff/Src/bootmode.o
 .text.BL_Start
                0x10010c0e       0x8e ./src/ethercat/beckhoff/Src/bootmode.o
                0x10010c0e                BL_Start
 .text.BL_Stop  0x10010c9c       0x18 ./src/ethercat/beckhoff/Src/bootmode.o
                0x10010c9c                BL_Stop
 .text.BL_StartDownload
                0x10010cb4       0x46 ./src/ethercat/beckhoff/Src/bootmode.o
                0x10010cb4                BL_StartDownload
 *fill*         0x10010cfa        0x2 
 .text.BL_Data  0x10010cfc      0x40c ./src/ethercat/beckhoff/Src/bootmode.o
                0x10010cfc                BL_Data
 .text.BL_SetRebootFlag
                0x10011108        0xc ./src/ethercat/beckhoff/Src/bootmode.o
                0x10011108                BL_SetRebootFlag
 .text.BL_CheckRebootFlag
                0x10011114        0xc ./src/ethercat/beckhoff/Src/bootmode.o
                0x10011114                BL_CheckRebootFlag
 .text.BL_Reboot
                0x10011120        0xe ./src/ethercat/beckhoff/Src/bootmode.o
                0x10011120                BL_Reboot
 .text.Write0xF030
                0x1001112e      0x1ce ./src/ethercat/beckhoff/Src/cia402appl.o
                0x1001112e                Write0xF030
 .text.CiA402_Init
                0x100112fc      0x674 ./src/ethercat/beckhoff/Src/cia402appl.o
                0x100112fc                CiA402_Init
 .text.CiA402_DeallocateAxis
                0x10011970       0x64 ./src/ethercat/beckhoff/Src/cia402appl.o
                0x10011970                CiA402_DeallocateAxis
 .text.CiA402_StateMachine
                0x100119d4      0x4b0 ./src/ethercat/beckhoff/Src/cia402appl.o
                0x100119d4                CiA402_StateMachine
 .text.CiA402_Application
                0x10011e84      0x12e ./src/ethercat/beckhoff/Src/cia402appl.o
                0x10011e84                CiA402_Application
 .text.COE_SyncTimeStamp
                0x10011fb2       0x78 ./src/ethercat/beckhoff/Src/coeappl.o
                0x10011fb2                COE_SyncTimeStamp
 .text.Read0x10F8
                0x1001202a       0x40 ./src/ethercat/beckhoff/Src/coeappl.o
                0x1001202a                Read0x10F8
 .text.COE_GetObjectDictionary
                0x1001206a        0xc ./src/ethercat/beckhoff/Src/coeappl.o
                0x1001206a                COE_GetObjectDictionary
 .text.COE_UpdateSyncErrorStatus
                0x10012076       0x6e ./src/ethercat/beckhoff/Src/coeappl.o
                0x10012076                COE_UpdateSyncErrorStatus
 .text.COE_AddObjectToDic
                0x100120e4       0x82 ./src/ethercat/beckhoff/Src/coeappl.o
                0x100120e4                COE_AddObjectToDic
 .text.COE_RemoveDicEntry
                0x10012166       0x4a ./src/ethercat/beckhoff/Src/coeappl.o
                0x10012166                COE_RemoveDicEntry
 .text.COE_ClearObjDictionary
                0x100121b0       0x28 ./src/ethercat/beckhoff/Src/coeappl.o
                0x100121b0                COE_ClearObjDictionary
 .text.AddObjectsToObjDictionary
                0x100121d8       0x2a ./src/ethercat/beckhoff/Src/coeappl.o
                0x100121d8                AddObjectsToObjDictionary
 .text.COE_ObjDictionaryInit
                0x10012202       0x44 ./src/ethercat/beckhoff/Src/coeappl.o
                0x10012202                COE_ObjDictionaryInit
 .text.COE_ObjInit
                0x10012246      0x10c ./src/ethercat/beckhoff/Src/coeappl.o
                0x10012246                COE_ObjInit
 .text.COE_Main
                0x10012352       0xfa ./src/ethercat/beckhoff/Src/coeappl.o
                0x10012352                COE_Main
 .text.GetSystemTimeDelay
                0x1001244c       0x3a ./src/ethercat/beckhoff/Src/ecatappl.o
                0x1001244c                GetSystemTimeDelay
 .text.PDO_InputMapping
                0x10012486       0xa8 ./src/ethercat/beckhoff/Src/ecatappl.o
                0x10012486                PDO_InputMapping
 .text.HandleCycleTimeMeasurement
                0x1001252e       0x70 ./src/ethercat/beckhoff/Src/ecatappl.o
                0x1001252e                HandleCycleTimeMeasurement
 .text.PDO_OutputMapping
                0x1001259e       0xc0 ./src/ethercat/beckhoff/Src/ecatappl.o
                0x1001259e                PDO_OutputMapping
 .text.Sync1_Isr
                0x1001265e       0x5a ./src/ethercat/beckhoff/Src/ecatappl.o
                0x1001265e                Sync1_Isr
 .text.ECAT_SetLedIndication
                0x100126b8      0x254 ./src/ethercat/beckhoff/Src/ecatappl.o
                0x100126b8                ECAT_SetLedIndication
 .text.ECAT_CheckTimer
                0x1001290c       0x94 ./src/ethercat/beckhoff/Src/ecatappl.o
                0x1001290c                ECAT_CheckTimer
 .text.MainInit
                0x100129a0      0x114 ./src/ethercat/beckhoff/Src/ecatappl.o
                0x100129a0                MainInit
 .text.ECAT_Application
                0x10012ab4       0x36 ./src/ethercat/beckhoff/Src/ecatappl.o
                0x10012ab4                ECAT_Application
 .text.Sync0_Isr
                0x10012aea      0x1ac ./src/ethercat/beckhoff/Src/ecatappl.o
                0x10012aea                Sync0_Isr
 .text.PDI_Isr  0x10012c96      0x1b4 ./src/ethercat/beckhoff/Src/ecatappl.o
                0x10012c96                PDI_Isr
 .text.MainLoop
                0x10012e4a      0x118 ./src/ethercat/beckhoff/Src/ecatappl.o
                0x10012e4a                MainLoop
 .text.ESC_EepromAccess
                0x10012f62      0x184 ./src/ethercat/beckhoff/Src/ecatappl.o
                0x10012f62                ESC_EepromAccess
 .text.COE_Init
                0x100130e6       0x18 ./src/ethercat/beckhoff/Src/ecatcoe.o
                0x100130e6                COE_Init
 .text.COE_ServiceInd
                0x100130fe       0x2c ./src/ethercat/beckhoff/Src/ecatcoe.o
                0x100130fe                COE_ServiceInd
 .text.COE_ContinueInd
                0x1001312a       0x60 ./src/ethercat/beckhoff/Src/ecatcoe.o
                0x1001312a                COE_ContinueInd
 .text.FOE_Init
                0x1001318a       0x22 ./src/ethercat/beckhoff/Src/ecatfoe.o
                0x1001318a                FOE_Init
 .text.FOE_ServiceInd
                0x100131ac      0x36a ./src/ethercat/beckhoff/Src/ecatfoe.o
                0x100131ac                FOE_ServiceInd
 .text.FOE_ContinueInd
                0x10013516       0x24 ./src/ethercat/beckhoff/Src/ecatfoe.o
                0x10013516                FOE_ContinueInd
 .text.ResetALEventMask
                0x1001353a       0x28 ./src/ethercat/beckhoff/Src/ecatslv.o
                0x1001353a                ResetALEventMask
 .text.SetALEventMask
                0x10013562       0x24 ./src/ethercat/beckhoff/Src/ecatslv.o
                0x10013562                SetALEventMask
 .text.UpdateEEPROMLoadedState
                0x10013586       0x24 ./src/ethercat/beckhoff/Src/ecatslv.o
                0x10013586                UpdateEEPROMLoadedState
 .text.GetSyncMan
                0x100135aa       0x2a ./src/ethercat/beckhoff/Src/ecatslv.o
                0x100135aa                GetSyncMan
 .text.DisableSyncManChannel
                0x100135d4       0x38 ./src/ethercat/beckhoff/Src/ecatslv.o
                0x100135d4                DisableSyncManChannel
 .text.EnableSyncManChannel
                0x1001360c       0x38 ./src/ethercat/beckhoff/Src/ecatslv.o
                0x1001360c                EnableSyncManChannel
 .text.CheckSmSettings
                0x10013644      0x27e ./src/ethercat/beckhoff/Src/ecatslv.o
                0x10013644                CheckSmSettings
 .text.StartInputHandler
                0x100138c2      0x6cc ./src/ethercat/beckhoff/Src/ecatslv.o
                0x100138c2                StartInputHandler
 .text.StartOutputHandler
                0x10013f8e       0x70 ./src/ethercat/beckhoff/Src/ecatslv.o
                0x10013f8e                StartOutputHandler
 .text.StopOutputHandler
                0x10013ffe       0x18 ./src/ethercat/beckhoff/Src/ecatslv.o
                0x10013ffe                StopOutputHandler
 .text.StopInputHandler
                0x10014016      0x104 ./src/ethercat/beckhoff/Src/ecatslv.o
                0x10014016                StopInputHandler
 .text.SetALStatus
                0x1001411a      0x110 ./src/ethercat/beckhoff/Src/ecatslv.o
                0x1001411a                SetALStatus
 .text.AL_ControlInd
                0x1001422a      0x76e ./src/ethercat/beckhoff/Src/ecatslv.o
                0x1001422a                AL_ControlInd
 .text.AL_ControlRes
                0x10014998      0x356 ./src/ethercat/beckhoff/Src/ecatslv.o
                0x10014998                AL_ControlRes
 .text.DC_CheckWatchdog
                0x10014cee      0x120 ./src/ethercat/beckhoff/Src/ecatslv.o
                0x10014cee                DC_CheckWatchdog
 .text.CheckIfEcatError
                0x10014e0e       0x98 ./src/ethercat/beckhoff/Src/ecatslv.o
                0x10014e0e                CheckIfEcatError
 .text.ECAT_Init
                0x10014ea6      0x15a ./src/ethercat/beckhoff/Src/ecatslv.o
                0x10014ea6                ECAT_Init
 .text.ECAT_Main
                0x10015000      0x194 ./src/ethercat/beckhoff/Src/ecatslv.o
                0x10015000                ECAT_Main
 .text.FOE_Read
                0x10015194       0x2e ./src/ethercat/beckhoff/Src/foeappl.o
                0x10015194                FOE_Read
 .text.FOE_Write
                0x100151c2       0x18 ./src/ethercat/beckhoff/Src/foeappl.o
                0x100151c2                FOE_Write
 .text.FOE_Data
                0x100151da       0x3a ./src/ethercat/beckhoff/Src/foeappl.o
                0x100151da                FOE_Data
 .text.FOE_Ack  0x10015214       0x24 ./src/ethercat/beckhoff/Src/foeappl.o
                0x10015214                FOE_Ack
 .text.FOE_Busy
                0x10015238        0xc ./src/ethercat/beckhoff/Src/foeappl.o
                0x10015238                FOE_Busy
 .text.FOE_Error
                0x10015244       0x12 ./src/ethercat/beckhoff/Src/foeappl.o
                0x10015244                FOE_Error
 .text.PutInMbxQueue
                0x10015256       0x28 ./src/ethercat/beckhoff/Src/mailbox.o
                0x10015256                PutInMbxQueue
 .text.GetOutOfMbxQueue
                0x1001527e       0x28 ./src/ethercat/beckhoff/Src/mailbox.o
                0x1001527e                GetOutOfMbxQueue
 .text.MBX_Init
                0x100152a6       0xd8 ./src/ethercat/beckhoff/Src/mailbox.o
                0x100152a6                MBX_Init
 .text.MBX_StartMailboxHandler
                0x1001537e       0xce ./src/ethercat/beckhoff/Src/mailbox.o
                0x1001537e                MBX_StartMailboxHandler
 .text.MBX_StopMailboxHandler
                0x1001544c      0x14c ./src/ethercat/beckhoff/Src/mailbox.o
                0x1001544c                MBX_StopMailboxHandler
 .text.MailboxServiceInd
                0x10015598       0x3e ./src/ethercat/beckhoff/Src/mailbox.o
                0x10015598                MailboxServiceInd
 .text.MBX_CopyToSendMailbox
                0x100155d6      0x12e ./src/ethercat/beckhoff/Src/mailbox.o
                0x100155d6                MBX_CopyToSendMailbox
 .text.MBX_MailboxReadInd
                0x10015704       0xea ./src/ethercat/beckhoff/Src/mailbox.o
                0x10015704                MBX_MailboxReadInd
 .text.MBX_MailboxRepeatReq
                0x100157ee       0x7a ./src/ethercat/beckhoff/Src/mailbox.o
                0x100157ee                MBX_MailboxRepeatReq
 .text.MBX_MailboxSendReq
                0x10015868       0xb4 ./src/ethercat/beckhoff/Src/mailbox.o
                0x10015868                MBX_MailboxSendReq
 .text.MBX_MailboxWriteInd
                0x1001591c       0x82 ./src/ethercat/beckhoff/Src/mailbox.o
                0x1001591c                MBX_MailboxWriteInd
 .text.MBX_CheckAndCopyMailbox
                0x1001599e      0x122 ./src/ethercat/beckhoff/Src/mailbox.o
                0x1001599e                MBX_CheckAndCopyMailbox
 .text.MBX_Main
                0x10015ac0       0x52 ./src/ethercat/beckhoff/Src/mailbox.o
                0x10015ac0                MBX_Main
 .text.OBJ_GetObjectHandle
                0x10015b12       0x1c ./src/ethercat/beckhoff/Src/objdef.o
                0x10015b12                OBJ_GetObjectHandle
 .text.OBJ_GetObjectLength
                0x10015b2e       0xa4 ./src/ethercat/beckhoff/Src/objdef.o
                0x10015b2e                OBJ_GetObjectLength
 .text.OBJ_CopyNumberToString
                0x10015bd2       0x4c ./src/ethercat/beckhoff/Src/objdef.o
                0x10015bd2                OBJ_CopyNumberToString
 .text.OBJ_GetDesc
                0x10015c1e       0xc4 ./src/ethercat/beckhoff/Src/objdef.o
                0x10015c1e                OBJ_GetDesc
 .text.OBJ_GetEntryDesc
                0x10015ce2       0x22 ./src/ethercat/beckhoff/Src/objdef.o
                0x10015ce2                OBJ_GetEntryDesc
 .text.OBJ_GetNoOfObjects
                0x10015d04       0x56 ./src/ethercat/beckhoff/Src/objdef.o
                0x10015d04                OBJ_GetNoOfObjects
 .text.OBJ_GetObjectList
                0x10015d5a       0xca ./src/ethercat/beckhoff/Src/objdef.o
                0x10015d5a                OBJ_GetObjectList
 .text.OBJ_GetObjDesc
                0x10015e24        0x4 ./src/ethercat/beckhoff/Src/objdef.o
                0x10015e24                OBJ_GetObjDesc
 .text.OBJ_GetEntryOffset
                0x10015e28      0x154 ./src/ethercat/beckhoff/Src/objdef.o
                0x10015e28                OBJ_GetEntryOffset
 .text.CheckSyncTypeValue
                0x10015f7c      0x162 ./src/ethercat/beckhoff/Src/objdef.o
                0x10015f7c                CheckSyncTypeValue
 .text.OBJ_Read
                0x100160de      0x498 ./src/ethercat/beckhoff/Src/objdef.o
                0x100160de                OBJ_Read
 .text.OBJ_Write
                0x10016576      0x5de ./src/ethercat/beckhoff/Src/objdef.o
                0x10016576                OBJ_Write
 .text.SdoRes   0x10016b54       0xdc ./src/ethercat/beckhoff/Src/sdoserv.o
                0x10016b54                SdoRes
 .text.SDOS_SdoInd
                0x10016c30      0x910 ./src/ethercat/beckhoff/Src/sdoserv.o
                0x10016c30                SDOS_SdoInd
 .text.SDOS_SdoRes
                0x10017540       0xf4 ./src/ethercat/beckhoff/Src/sdoserv.o
                0x10017540                SDOS_SdoRes
 .text.SDOS_ClearPendingResponse
                0x10017634       0xd2 ./src/ethercat/beckhoff/Src/sdoserv.o
                0x10017634                SDOS_ClearPendingResponse
 .text.SDOS_SdoInfoInd
                0x10017706      0x2fa ./src/ethercat/beckhoff/Src/sdoserv.o
                0x10017706                SDOS_SdoInfoInd
 .text.BankDetection_Init
                0x10017a00       0x4c ./src/common/bank_detection.o
                0x10017a00                BankDetection_Init
 .text.BankDetection_GetCurrentBank
                0x10017a4c        0xc ./src/common/bank_detection.o
                0x10017a4c                BankDetection_GetCurrentBank
 .text.BankDetection_GetTargetBank
                0x10017a58       0x12 ./src/common/bank_detection.o
                0x10017a58                BankDetection_GetTargetBank
 .text.BankDetection_IsTargetBankValid
                0x10017a6a       0x28 ./src/common/bank_detection.o
                0x10017a6a                BankDetection_IsTargetBankValid
 .text.BankDetection_GetBankAddress
                0x10017a92       0x1a ./src/common/bank_detection.o
                0x10017a92                BankDetection_GetBankAddress
 .text.getGlobalCounter
                0x10017aac        0xc ./src/common/bsp_r52_global_counter.o
                0x10017aac                getGlobalCounter
 .text.Queue_Init
                0x10017ab8       0x16 ./src/common/circular_queue.o
                0x10017ab8                Queue_Init
 .text.Queue_HadUse
                0x10017ace       0x32 ./src/common/circular_queue.o
                0x10017ace                Queue_HadUse
 .text.Queue_NoUse
                0x10017b00       0x3a ./src/common/circular_queue.o
                0x10017b00                Queue_NoUse
 .text.Queue_Wirte
                0x10017b3a       0x58 ./src/common/circular_queue.o
                0x10017b3a                Queue_Wirte
 .text.Queue_Read
                0x10017b92       0x58 ./src/common/circular_queue.o
                0x10017b92                Queue_Read
 .text.CRC_Init
                0x10017bea       0x58 ./src/common/crc32_table.o
                0x10017bea                CRC_Init
 .text.CRC_Calculate
                0x10017c42       0x52 ./src/common/crc32_table.o
                0x10017c42                CRC_Calculate
 .text.SblBootParams_Read
                0x10017c94       0x4c ./src/common/sbl_boot_params.o
                0x10017c94                SblBootParams_Read
 .text.SblBootParams_Write
                0x10017ce0       0x72 ./src/common/sbl_boot_params.o
                0x10017ce0                SblBootParams_Write
 .text.SblBootParams_ValidateCRC
                0x10017d52       0x28 ./src/common/sbl_boot_params.o
                0x10017d52                SblBootParams_ValidateCRC
 .text.SblBootParams_UpdateCRC
                0x10017d7a       0x1e ./src/common/sbl_boot_params.o
                0x10017d7a                SblBootParams_UpdateCRC
 .text.SblBootParams_Init
                0x10017d98       0x98 ./src/common/sbl_boot_params.o
                0x10017d98                SblBootParams_Init
 .text.SblBootParams_GetCurrentBank
                0x10017e30       0x32 ./src/common/sbl_boot_params.o
                0x10017e30                SblBootParams_GetCurrentBank
 .text.SblBootParams_CheckVersionUpgrade
                0x10017e62       0x6c ./src/common/sbl_boot_params.o
                0x10017e62                SblBootParams_CheckVersionUpgrade
 .text._write   0x10017ece       0x36 ./src/hal_entry.o
                0x10017ece                _write
 *fill*         0x10017f04        0x4 
 .text.hal_entry
                0x10017f08      0x160 ./src/hal_entry.o
                0x10017f08                hal_entry
 .text.user_uart_callback
                0x10018068       0x14 ./src/hal_entry.o
                0x10018068                user_uart_callback
 .text._getpid  0x1001807c        0x4 ./src/syscall.o
                0x1001807c                _getpid
 .text._kill    0x10018080       0x10 ./src/syscall.o
                0x10018080                _kill
 .text._exit    0x10018090        0xc ./src/syscall.o
                0x10018090                _exit
 .text._read    0x1001809c       0x1a ./src/syscall.o
                0x1001809c                _read
 .text._close   0x100180b6        0x6 ./src/syscall.o
                0x100180b6                _close
 .text._fstat   0x100180bc        0xa ./src/syscall.o
                0x100180bc                _fstat
 .text._isatty  0x100180c6        0x4 ./src/syscall.o
                0x100180c6                _isatty
 .text._lseek   0x100180ca        0x4 ./src/syscall.o
                0x100180ca                _lseek
 .text.main     0x100180ce        0xa ./rzn_gen/main.o
                0x100180ce                main
 .text.RM_ETHERCAT_SSC_PORT_Close
                0x100180d8      0x12c ./rzn/fsp/src/rm_ethercat_ssc_port/rm_ethercat_ssc_port.o
                0x100180d8                RM_ETHERCAT_SSC_PORT_Close
 .text.ethercat_ssc_port_isr_esc_cat
                0x10018204       0x4a ./rzn/fsp/src/rm_ethercat_ssc_port/rm_ethercat_ssc_port.o
                0x10018204                ethercat_ssc_port_isr_esc_cat
 .text.ethercat_ssc_port_isr_esc_sync0
                0x1001824e       0x4a ./rzn/fsp/src/rm_ethercat_ssc_port/rm_ethercat_ssc_port.o
                0x1001824e                ethercat_ssc_port_isr_esc_sync0
 .text.ethercat_ssc_port_isr_esc_sync1
                0x10018298       0x4a ./rzn/fsp/src/rm_ethercat_ssc_port/rm_ethercat_ssc_port.o
                0x10018298                ethercat_ssc_port_isr_esc_sync1
 .text.HW_GetTimer
                0x100182e2        0xc ./rzn/fsp/src/rm_ethercat_ssc_port/rm_ethercat_ssc_port.o
                0x100182e2                HW_GetTimer
 .text.HW_ClearTimer
                0x100182ee        0xe ./rzn/fsp/src/rm_ethercat_ssc_port/rm_ethercat_ssc_port.o
                0x100182ee                HW_ClearTimer
 .text.HW_IncTimer
                0x100182fc       0x12 ./rzn/fsp/src/rm_ethercat_ssc_port/rm_ethercat_ssc_port.o
                0x100182fc                HW_IncTimer
 .text.rm_ssc_port_timer_interrupt
                0x1001830e        0xe ./rzn/fsp/src/rm_ethercat_ssc_port/rm_ethercat_ssc_port.o
                0x1001830e                rm_ssc_port_timer_interrupt
 .text.HW_Init  0x1001831c       0x1c ./rzn/fsp/src/rm_ethercat_ssc_port/rm_ethercat_ssc_port.o
                0x1001831c                HW_Init
 .text.RM_ETHERCAT_SSC_PORT_Open
                0x10018338      0x6d2 ./rzn/fsp/src/rm_ethercat_ssc_port/rm_ethercat_ssc_port.o
                0x10018338                RM_ETHERCAT_SSC_PORT_Open
 .text.HW_SetLed
                0x10018a0a       0x18 ./rzn/fsp/src/rm_ethercat_ssc_port/rm_ethercat_ssc_port.o
                0x10018a0a                HW_SetLed
 .text.DISABLE_ESC_INT
                0x10018a22       0xbc ./rzn/fsp/src/rm_ethercat_ssc_port/rm_ethercat_ssc_port.o
                0x10018a22                DISABLE_ESC_INT
 .text.ENABLE_ESC_INT
                0x10018ade       0xd4 ./rzn/fsp/src/rm_ethercat_ssc_port/rm_ethercat_ssc_port.o
                0x10018ade                ENABLE_ESC_INT
 .text.r_xspi_qspi_direct_transfer
                0x10018bb2       0xa4 ./rzn/fsp/src/r_xspi_qspi/r_xspi_qspi.o
 .text.r_xspi_qspi_status_sub
                0x10018c56       0x7c ./rzn/fsp/src/r_xspi_qspi/r_xspi_qspi.o
 .text.R_XSPI_QSPI_StatusGet
                0x10018cd2       0x20 ./rzn/fsp/src/r_xspi_qspi/r_xspi_qspi.o
                0x10018cd2                R_XSPI_QSPI_StatusGet
 .text.r_xspi_qspi_write_enable
                0x10018cf2       0x2c ./rzn/fsp/src/r_xspi_qspi/r_xspi_qspi.o
 .text.R_XSPI_QSPI_Write
                0x10018d1e       0xa0 ./rzn/fsp/src/r_xspi_qspi/r_xspi_qspi.o
                0x10018d1e                R_XSPI_QSPI_Write
 .text.R_XSPI_QSPI_Erase
                0x10018dbe       0x96 ./rzn/fsp/src/r_xspi_qspi/r_xspi_qspi.o
                0x10018dbe                R_XSPI_QSPI_Erase
 .text.R_XSPI_QSPI_Open
                0x10018e54      0x140 ./rzn/fsp/src/r_xspi_qspi/r_xspi_qspi.o
                0x10018e54                R_XSPI_QSPI_Open
 .text.R_SCI_UART_Read
                0x10018f94        0x8 ./rzn/fsp/src/r_sci_uart/r_sci_uart.o
                0x10018f94                R_SCI_UART_Read
 .text.R_SCI_UART_Write
                0x10018f9c       0x44 ./rzn/fsp/src/r_sci_uart/r_sci_uart.o
                0x10018f9c                R_SCI_UART_Write
 .text.R_SCI_UART_CallbackSet
                0x10018fe0        0xa ./rzn/fsp/src/r_sci_uart/r_sci_uart.o
                0x10018fe0                R_SCI_UART_CallbackSet
 .text.R_SCI_UART_InfoGet
                0x10018fea        0xc ./rzn/fsp/src/r_sci_uart/r_sci_uart.o
                0x10018fea                R_SCI_UART_InfoGet
 .text.R_SCI_UART_Abort
                0x10018ff6       0x38 ./rzn/fsp/src/r_sci_uart/r_sci_uart.o
                0x10018ff6                R_SCI_UART_Abort
 .text.R_SCI_UART_ReadStop
                0x1001902e        0xc ./rzn/fsp/src/r_sci_uart/r_sci_uart.o
                0x1001902e                R_SCI_UART_ReadStop
 .text.r_sci_uart_call_callback
                0x1001903a       0x48 ./rzn/fsp/src/r_sci_uart/r_sci_uart.o
 .text.sci_uart_txi_common
                0x10019082       0x5a ./rzn/fsp/src/r_sci_uart/r_sci_uart.o
 .text.sci_uart_rxi_common
                0x100190dc       0x4e ./rzn/fsp/src/r_sci_uart/r_sci_uart.o
 .text.r_sci_irq_cfg
                0x1001912a       0xe6 ./rzn/fsp/src/r_sci_uart/r_sci_uart.o
 .text.R_SCI_UART_Close
                0x10019210      0x184 ./rzn/fsp/src/r_sci_uart/r_sci_uart.o
                0x10019210                R_SCI_UART_Close
 .text.R_SCI_UART_Open
                0x10019394      0x404 ./rzn/fsp/src/r_sci_uart/r_sci_uart.o
                0x10019394                R_SCI_UART_Open
 .text.R_SCI_UART_BaudSet
                0x10019798       0x62 ./rzn/fsp/src/r_sci_uart/r_sci_uart.o
                0x10019798                R_SCI_UART_BaudSet
 .text.sci_uart_txi_isr
                0x100197fa       0x2e ./rzn/fsp/src/r_sci_uart/r_sci_uart.o
                0x100197fa                sci_uart_txi_isr
 .text.sci_uart_rxi_isr
                0x10019828       0x2e ./rzn/fsp/src/r_sci_uart/r_sci_uart.o
                0x10019828                sci_uart_rxi_isr
 .text.sci_uart_tei_isr
                0x10019856       0x4a ./rzn/fsp/src/r_sci_uart/r_sci_uart.o
                0x10019856                sci_uart_tei_isr
 .text.sci_uart_eri_isr
                0x100198a0       0x78 ./rzn/fsp/src/r_sci_uart/r_sci_uart.o
                0x100198a0                sci_uart_eri_isr
 .text.R_IOPORT_Close
                0x10019918        0x8 ./rzn/fsp/src/r_ioport/r_ioport.o
                0x10019918                R_IOPORT_Close
 .text.R_IOPORT_PinRead
                0x10019920       0x3a ./rzn/fsp/src/r_ioport/r_ioport.o
                0x10019920                R_IOPORT_PinRead
 .text.R_IOPORT_PortRead
                0x1001995a       0x32 ./rzn/fsp/src/r_ioport/r_ioport.o
                0x1001995a                R_IOPORT_PortRead
 .text.R_IOPORT_PortWrite
                0x1001998c       0x52 ./rzn/fsp/src/r_ioport/r_ioport.o
                0x1001998c                R_IOPORT_PortWrite
 .text.R_IOPORT_PinWrite
                0x100199de       0x5c ./rzn/fsp/src/r_ioport/r_ioport.o
                0x100199de                R_IOPORT_PinWrite
 .text.R_IOPORT_PortDirectionSet
                0x10019a3a       0x6e ./rzn/fsp/src/r_ioport/r_ioport.o
                0x10019a3a                R_IOPORT_PortDirectionSet
 .text.R_IOPORT_PortEventInputRead
                0x10019aa8       0x2e ./rzn/fsp/src/r_ioport/r_ioport.o
                0x10019aa8                R_IOPORT_PortEventInputRead
 .text.R_IOPORT_PinEventInputRead
                0x10019ad6       0x34 ./rzn/fsp/src/r_ioport/r_ioport.o
                0x10019ad6                R_IOPORT_PinEventInputRead
 .text.r_ioport_pin_set
                0x10019b0a      0x17a ./rzn/fsp/src/r_ioport/r_ioport.o
 .text.R_IOPORT_PinCfg
                0x10019c84       0xb8 ./rzn/fsp/src/r_ioport/r_ioport.o
                0x10019c84                R_IOPORT_PinCfg
 .text.R_IOPORT_PortEventOutputWrite
                0x10019d3c       0xde ./rzn/fsp/src/r_ioport/r_ioport.o
                0x10019d3c                R_IOPORT_PortEventOutputWrite
 .text.r_ioport_pins_config
                0x10019e1a       0xd8 ./rzn/fsp/src/r_ioport/r_ioport.o
 .text.R_IOPORT_PinsCfg
                0x10019ef2        0xc ./rzn/fsp/src/r_ioport/r_ioport.o
                0x10019ef2                R_IOPORT_PinsCfg
 .text.R_IOPORT_Open
                0x10019efe      0x1fe ./rzn/fsp/src/r_ioport/r_ioport.o
                0x10019efe                R_IOPORT_Open
 .text.R_IOPORT_PinEventOutputWrite
                0x1001a0fc       0xf6 ./rzn/fsp/src/r_ioport/r_ioport.o
                0x1001a0fc                R_IOPORT_PinEventOutputWrite
 .text.R_ETHER_SELECTOR_Close
                0x1001a1f2        0x8 ./rzn/fsp/src/r_ether_selector/r_ether_selector.o
                0x1001a1f2                R_ETHER_SELECTOR_Close
 .text.R_ETHER_SELECTOR_ConverterSet
                0x1001a1fa       0x6a ./rzn/fsp/src/r_ether_selector/r_ether_selector.o
                0x1001a1fa                R_ETHER_SELECTOR_ConverterSet
 .text.R_ETHER_SELECTOR_Open
                0x1001a264      0x1aa ./rzn/fsp/src/r_ether_selector/r_ether_selector.o
                0x1001a264                R_ETHER_SELECTOR_Open
 .text.R_ETHER_PHY_Close
                0x1001a40e       0x1c ./rzn/fsp/src/r_ether_phy/r_ether_phy.o
                0x1001a40e                R_ETHER_PHY_Close
 .text.R_ETHER_PHY_ChipInit
                0x1001a42a        0x4 ./rzn/fsp/src/r_ether_phy/r_ether_phy.o
                0x1001a42a                R_ETHER_PHY_ChipInit
 .text.R_ETHER_PHY_Read
                0x1001a42e      0x174 ./rzn/fsp/src/r_ether_phy/r_ether_phy.o
                0x1001a42e                R_ETHER_PHY_Read
 .text.R_ETHER_PHY_LinkStatusGet
                0x1001a5a2       0x3a ./rzn/fsp/src/r_ether_phy/r_ether_phy.o
                0x1001a5a2                R_ETHER_PHY_LinkStatusGet
 .text.R_ETHER_PHY_Write
                0x1001a5dc      0x152 ./rzn/fsp/src/r_ether_phy/r_ether_phy.o
                0x1001a5dc                R_ETHER_PHY_Write
 .text.R_ETHER_PHY_StartAutoNegotiate
                0x1001a72e       0x2e ./rzn/fsp/src/r_ether_phy/r_ether_phy.o
                0x1001a72e                R_ETHER_PHY_StartAutoNegotiate
 .text.R_ETHER_PHY_Open
                0x1001a75c      0x354 ./rzn/fsp/src/r_ether_phy/r_ether_phy.o
                0x1001a75c                R_ETHER_PHY_Open
 .text.ether_phy_convert_speed_duplex
                0x1001aab0       0x38 ./rzn/fsp/src/r_ether_phy/r_ether_phy.o
                0x1001aab0                ether_phy_convert_speed_duplex
 .text.R_ETHER_PHY_LinkPartnerAbilityGet
                0x1001aae8      0x170 ./rzn/fsp/src/r_ether_phy/r_ether_phy.o
                0x1001aae8                R_ETHER_PHY_LinkPartnerAbilityGet
 .text.R_CMT_Stop
                0x1001ac58       0x28 ./rzn/fsp/src/r_cmt/r_cmt.o
                0x1001ac58                R_CMT_Stop
 .text.R_CMT_Start
                0x1001ac80       0x22 ./rzn/fsp/src/r_cmt/r_cmt.o
                0x1001ac80                R_CMT_Start
 .text.R_CMT_Reset
                0x1001aca2       0x1e ./rzn/fsp/src/r_cmt/r_cmt.o
                0x1001aca2                R_CMT_Reset
 .text.R_CMT_Enable
                0x1001acc0        0x4 ./rzn/fsp/src/r_cmt/r_cmt.o
                0x1001acc0                R_CMT_Enable
 .text.R_CMT_Disable
                0x1001acc4        0x4 ./rzn/fsp/src/r_cmt/r_cmt.o
                0x1001acc4                R_CMT_Disable
 .text.R_CMT_PeriodSet
                0x1001acc8       0x38 ./rzn/fsp/src/r_cmt/r_cmt.o
                0x1001acc8                R_CMT_PeriodSet
 .text.R_CMT_DutyCycleSet
                0x1001ad00        0x4 ./rzn/fsp/src/r_cmt/r_cmt.o
                0x1001ad00                R_CMT_DutyCycleSet
 .text.R_CMT_StatusGet
                0x1001ad04       0x38 ./rzn/fsp/src/r_cmt/r_cmt.o
                0x1001ad04                R_CMT_StatusGet
 .text.R_CMT_CallbackSet
                0x1001ad3c        0xa ./rzn/fsp/src/r_cmt/r_cmt.o
                0x1001ad3c                R_CMT_CallbackSet
 .text.R_CMT_InfoGet
                0x1001ad46       0x6c ./rzn/fsp/src/r_cmt/r_cmt.o
                0x1001ad46                R_CMT_InfoGet
 .text.R_CMT_Open
                0x1001adb2      0x17e ./rzn/fsp/src/r_cmt/r_cmt.o
                0x1001adb2                R_CMT_Open
 .text.R_CMT_Close
                0x1001af30       0x94 ./rzn/fsp/src/r_cmt/r_cmt.o
                0x1001af30                R_CMT_Close
 .text.cmt_cm_int_isr
                0x1001afc4       0xc0 ./rzn/fsp/src/r_cmt/r_cmt.o
                0x1001afc4                cmt_cm_int_isr
 .text.r_bsp_software_delay_loop
                0x1001b084        0xa ./rzn/fsp/src/bsp/mcu/all/cr/bsp_delay_core.o
                0x1001b084                r_bsp_software_delay_loop
 *fill*         0x1001b08e        0x2 
 .text.bsp_irq_core_cfg
                0x1001b090       0x58 ./rzn/fsp/src/bsp/mcu/all/cr/bsp_irq_core.o
                0x1001b090                bsp_irq_core_cfg
 .text.bsp_common_interrupt_handler
                0x1001b0e8       0x64 ./rzn/fsp/src/bsp/mcu/all/cr/bsp_irq_core.o
                0x1001b0e8                bsp_common_interrupt_handler
 .text.R_BSP_CacheEnableInst
                0x1001b14c       0x16 ./rzn/fsp/src/bsp/mcu/all/bsp_cache.o
                0x1001b14c                R_BSP_CacheEnableInst
 .text.R_BSP_CacheEnableData
                0x1001b162       0x16 ./rzn/fsp/src/bsp/mcu/all/bsp_cache.o
                0x1001b162                R_BSP_CacheEnableData
 .text.R_BSP_CacheEnableMemoryProtect
                0x1001b178       0x16 ./rzn/fsp/src/bsp/mcu/all/bsp_cache.o
                0x1001b178                R_BSP_CacheEnableMemoryProtect
 .text.R_BSP_CacheInvalidateAll
                0x1001b18e       0xa2 ./rzn/fsp/src/bsp/mcu/all/bsp_cache.o
                0x1001b18e                R_BSP_CacheInvalidateAll
 .text.SystemCoreClockUpdate
                0x1001b230       0x34 ./rzn/fsp/src/bsp/mcu/all/bsp_clocks.o
                0x1001b230                SystemCoreClockUpdate
 .text.bsp_clock_init
                0x1001b264      0x1fc ./rzn/fsp/src/bsp/mcu/all/bsp_clocks.o
                0x1001b264                bsp_clock_init
 .text.R_BSP_SoftwareDelay
                0x1001b460       0xca ./rzn/fsp/src/bsp/mcu/all/bsp_delay.o
                0x1001b460                R_BSP_SoftwareDelay
 .text.bsp_irq_cfg
                0x1001b52a        0x8 ./rzn/fsp/src/bsp/mcu/all/bsp_irq.o
                0x1001b52a                bsp_irq_cfg
 .text.R_BSP_RegisterProtectEnable
                0x1001b532       0x72 ./rzn/fsp/src/bsp/mcu/all/bsp_register_protection.o
                0x1001b532                R_BSP_RegisterProtectEnable
 .text.R_BSP_RegisterProtectDisable
                0x1001b5a4       0x5e ./rzn/fsp/src/bsp/mcu/all/bsp_register_protection.o
                0x1001b5a4                R_BSP_RegisterProtectDisable
 .text.R_BSP_SystemReset
                0x1001b602       0x14 ./rzn/fsp/src/bsp/mcu/all/bsp_reset.o
                0x1001b602                R_BSP_SystemReset
 .text.R_BSP_ModuleResetEnable
                0x1001b616       0x34 ./rzn/fsp/src/bsp/mcu/all/bsp_reset.o
                0x1001b616                R_BSP_ModuleResetEnable
 .text.R_BSP_ModuleResetDisable
                0x1001b64a       0x42 ./rzn/fsp/src/bsp/mcu/all/bsp_reset.o
                0x1001b64a                R_BSP_ModuleResetDisable
 .text._sbrk    0x1001b68c       0x5e ./rzn/fsp/src/bsp/mcu/all/bsp_sbrk.o
                0x1001b68c                _sbrk
 .text.Default_Handler
                0x1001b6ea        0x4 ./rzn/fsp/src/bsp/cmsis/Device/RENESAS/Source/cr/startup_core.o
                0x1001b6ea                Abort_Handler
                0x1001b6ea                Default_Handler
                0x1001b6ea                Prefetch_Handler
                0x1001b6ea                Reserved_Handler
                0x1001b6ea                SVC_Handler
                0x1001b6ea                FIQ_Handler
                0x1001b6ea                Undefined_Handler
 *fill*         0x1001b6ee        0x2 
 .text.stack_init
                0x1001b6f0       0x64 ./rzn/fsp/src/bsp/cmsis/Device/RENESAS/Source/cr/startup_core.o
                0x1001b6f0                stack_init
 .text.fpu_slavetcm_init
                0x1001b754       0x14 ./rzn/fsp/src/bsp/cmsis/Device/RENESAS/Source/cr/startup_core.o
                0x1001b754                fpu_slavetcm_init
 .text.IRQ_Handler
                0x1001b768       0x78 ./rzn/fsp/src/bsp/cmsis/Device/RENESAS/Source/cr/startup_core.o
                0x1001b768                IRQ_Handler
 .text.bsp_fpu_advancedsimd_init
                0x1001b7e0       0x22 ./rzn/fsp/src/bsp/cmsis/Device/RENESAS/Source/cr/system_core.o
                0x1001b7e0                bsp_fpu_advancedsimd_init
 .text.bsp_slavetcm_enable
                0x1001b802       0x16 ./rzn/fsp/src/bsp/cmsis/Device/RENESAS/Source/cr/system_core.o
                0x1001b802                bsp_slavetcm_enable
 .text.bsp_mpu_init
                0x1001b818       0x1a ./rzn/fsp/src/bsp/cmsis/Device/RENESAS/Source/cr/system_core.o
                0x1001b818                bsp_mpu_init
 *fill*         0x1001b832        0x2 
 .text.bsp_memory_protect_setting
                0x1001b834       0x60 ./rzn/fsp/src/bsp/cmsis/Device/RENESAS/Source/cr/system_core.o
                0x1001b834                bsp_memory_protect_setting
 .text.bsp_irq_cfg_common
                0x1001b894       0x1e ./rzn/fsp/src/bsp/cmsis/Device/RENESAS/Source/cr/system_core.o
                0x1001b894                bsp_irq_cfg_common
 .text.SystemInit
                0x1001b8b2       0x72 ./rzn/fsp/src/bsp/cmsis/Device/RENESAS/Source/startup.o
                0x1001b8b2                SystemInit
 .text.bsp_master_mpu_init
                0x1001b924      0x15c ./rzn/fsp/src/bsp/cmsis/Device/RENESAS/Source/system.o
                0x1001b924                bsp_master_mpu_init
 .text.bsp_global_system_counter_init
                0x1001ba80       0x28 ./rzn/fsp/src/bsp/cmsis/Device/RENESAS/Source/system.o
                0x1001ba80                bsp_global_system_counter_init
 .text.bsp_copy_multibyte
                0x1001baa8       0x4c ./rzn/fsp/src/bsp/cmsis/Device/RENESAS/Source/system.o
                0x1001baa8                bsp_copy_multibyte
 .text.bsp_bss_init_multibyte
                0x1001baf4       0x3a ./rzn/fsp/src/bsp/cmsis/Device/RENESAS/Source/system.o
                0x1001baf4                bsp_bss_init_multibyte
 .text.bsp_tfu_init
                0x1001bb2e       0x44 ./rzn/fsp/src/bsp/cmsis/Device/RENESAS/Source/system.o
                0x1001bb2e                bsp_tfu_init
 .text.bsp_static_constructor_init
                0x1001bb72       0x54 ./rzn/fsp/src/bsp/cmsis/Device/RENESAS/Source/system.o
                0x1001bb72                bsp_static_constructor_init
 *fill*         0x1001bbc6        0x2 
 .text          0x1001bbc8       0x30 d:/program files/gcc/arm gnu toolchain arm-none-eabi/12.2 rel1/bin/../lib/gcc/arm-none-eabi/12.2.1/thumb/v7+fp/hard\libgcc.a(_aeabi_uldivmod.o)
                0x1001bbc8                __aeabi_uldivmod
 .text.__udivmoddi4
                0x1001bbf8      0x108 d:/program files/gcc/arm gnu toolchain arm-none-eabi/12.2 rel1/bin/../lib/gcc/arm-none-eabi/12.2.1/thumb/v7+fp/hard\libgcc.a(_udivmoddi4.o)
                0x1001bbf8                __udivmoddi4
 .text          0x1001bd00        0x4 d:/program files/gcc/arm gnu toolchain arm-none-eabi/12.2 rel1/bin/../lib/gcc/arm-none-eabi/12.2.1/thumb/v7+fp/hard\libgcc.a(_dvmd_tls.o)
                0x1001bd00                __aeabi_idiv0
                0x1001bd00                __aeabi_ldiv0
 .text.malloc   0x1001bd04       0x10 d:/program files/gcc/arm gnu toolchain arm-none-eabi/12.2 rel1/bin/../lib/gcc/arm-none-eabi/12.2.1/thumb/v7+fp/hard\libg_nano.a(libc_a-malloc.o)
                0x1001bd04                malloc
 .text.free     0x1001bd14       0x10 d:/program files/gcc/arm gnu toolchain arm-none-eabi/12.2 rel1/bin/../lib/gcc/arm-none-eabi/12.2.1/thumb/v7+fp/hard\libg_nano.a(libc_a-malloc.o)
                0x1001bd14                free
 .text.sbrk_aligned
                0x1001bd24       0x44 d:/program files/gcc/arm gnu toolchain arm-none-eabi/12.2 rel1/bin/../lib/gcc/arm-none-eabi/12.2.1/thumb/v7+fp/hard\libg_nano.a(libc_a-mallocr.o)
 .text._malloc_r
                0x1001bd68       0xec d:/program files/gcc/arm gnu toolchain arm-none-eabi/12.2 rel1/bin/../lib/gcc/arm-none-eabi/12.2.1/thumb/v7+fp/hard\libg_nano.a(libc_a-mallocr.o)
                0x1001bd68                _malloc_r
 .text.__malloc_lock
                0x1001be54        0xc d:/program files/gcc/arm gnu toolchain arm-none-eabi/12.2 rel1/bin/../lib/gcc/arm-none-eabi/12.2.1/thumb/v7+fp/hard\libg_nano.a(libc_a-mlock.o)
                0x1001be54                __malloc_lock
 .text.__malloc_unlock
                0x1001be60        0xc d:/program files/gcc/arm gnu toolchain arm-none-eabi/12.2 rel1/bin/../lib/gcc/arm-none-eabi/12.2.1/thumb/v7+fp/hard\libg_nano.a(libc_a-mlock.o)
                0x1001be60                __malloc_unlock
 .text.__cvt    0x1001be6c       0xb4 d:/program files/gcc/arm gnu toolchain arm-none-eabi/12.2 rel1/bin/../lib/gcc/arm-none-eabi/12.2.1/thumb/v7+fp/hard\libg_nano.a(libc_a-nano-vfprintf_float.o)
                0x1001be6c                __cvt
 .text.__exponent
                0x1001bf20       0x84 d:/program files/gcc/arm gnu toolchain arm-none-eabi/12.2 rel1/bin/../lib/gcc/arm-none-eabi/12.2.1/thumb/v7+fp/hard\libg_nano.a(libc_a-nano-vfprintf_float.o)
                0x1001bf20                __exponent
 *fill*         0x1001bfa4        0x4 
 .text._printf_float
                0x1001bfa8      0x44c d:/program files/gcc/arm gnu toolchain arm-none-eabi/12.2 rel1/bin/../lib/gcc/arm-none-eabi/12.2.1/thumb/v7+fp/hard\libg_nano.a(libc_a-nano-vfprintf_float.o)
                0x1001bfa8                _printf_float
 .text._printf_common
                0x1001c3f4       0xe4 d:/program files/gcc/arm gnu toolchain arm-none-eabi/12.2 rel1/bin/../lib/gcc/arm-none-eabi/12.2.1/thumb/v7+fp/hard\libg_nano.a(libc_a-nano-vfprintf_i.o)
                0x1001c3f4                _printf_common
 .text._printf_i
                0x1001c4d8      0x260 d:/program files/gcc/arm gnu toolchain arm-none-eabi/12.2 rel1/bin/../lib/gcc/arm-none-eabi/12.2.1/thumb/v7+fp/hard\libg_nano.a(libc_a-nano-vfprintf_i.o)
                0x1001c4d8                _printf_i
 .text.printf   0x1001c738       0x24 d:/program files/gcc/arm gnu toolchain arm-none-eabi/12.2 rel1/bin/../lib/gcc/arm-none-eabi/12.2.1/thumb/v7+fp/hard\libg_nano.a(libc_a-printf.o)
                0x1001c738                iprintf
                0x1001c738                printf
 .text._puts_r  0x1001c75c       0xaa d:/program files/gcc/arm gnu toolchain arm-none-eabi/12.2 rel1/bin/../lib/gcc/arm-none-eabi/12.2.1/thumb/v7+fp/hard\libg_nano.a(libc_a-puts.o)
                0x1001c75c                _puts_r
 *fill*         0x1001c806        0x2 
 .text.puts     0x1001c808       0x10 d:/program files/gcc/arm gnu toolchain arm-none-eabi/12.2 rel1/bin/../lib/gcc/arm-none-eabi/12.2.1/thumb/v7+fp/hard\libg_nano.a(libc_a-puts.o)
                0x1001c808                puts
 .text.__swbuf_r
                0x1001c818       0x7c d:/program files/gcc/arm gnu toolchain arm-none-eabi/12.2 rel1/bin/../lib/gcc/arm-none-eabi/12.2.1/thumb/v7+fp/hard\libg_nano.a(libc_a-wbuf.o)
                0x1001c818                __swbuf_r
 .text.__swsetup_r
                0x1001c894       0xac d:/program files/gcc/arm gnu toolchain arm-none-eabi/12.2 rel1/bin/../lib/gcc/arm-none-eabi/12.2.1/thumb/v7+fp/hard\libg_nano.a(libc_a-wsetup.o)
                0x1001c894                __swsetup_r
 .text.memcmp   0x1001c940       0x20 d:/program files/gcc/arm gnu toolchain arm-none-eabi/12.2 rel1/bin/../lib/gcc/arm-none-eabi/12.2.1/thumb/v7+fp/hard\libg_nano.a(libc_a-memcmp.o)
                0x1001c940                memcmp
 .text.memset   0x1001c960       0x10 d:/program files/gcc/arm gnu toolchain arm-none-eabi/12.2 rel1/bin/../lib/gcc/arm-none-eabi/12.2.1/thumb/v7+fp/hard\libg_nano.a(libc_a-memset.o)
                0x1001c960                memset
 .text._localeconv_r
                0x1001c970        0x8 d:/program files/gcc/arm gnu toolchain arm-none-eabi/12.2 rel1/bin/../lib/gcc/arm-none-eabi/12.2.1/thumb/v7+fp/hard\libg_nano.a(libc_a-localeconv.o)
                0x1001c970                _localeconv_r
 .text._sbrk_r  0x1001c978       0x20 d:/program files/gcc/arm gnu toolchain arm-none-eabi/12.2 rel1/bin/../lib/gcc/arm-none-eabi/12.2.1/thumb/v7+fp/hard\libg_nano.a(libc_a-sbrkr.o)
                0x1001c978                _sbrk_r
 .text.__errno  0x1001c998        0xc d:/program files/gcc/arm gnu toolchain arm-none-eabi/12.2 rel1/bin/../lib/gcc/arm-none-eabi/12.2.1/thumb/v7+fp/hard\libg_nano.a(libc_a-errno.o)
                0x1001c998                __errno
 .text.__retarget_lock_init_recursive
                0x1001c9a4        0x2 d:/program files/gcc/arm gnu toolchain arm-none-eabi/12.2 rel1/bin/../lib/gcc/arm-none-eabi/12.2.1/thumb/v7+fp/hard\libg_nano.a(libc_a-lock.o)
                0x1001c9a4                __retarget_lock_init_recursive
 .text.__retarget_lock_acquire_recursive
                0x1001c9a6        0x2 d:/program files/gcc/arm gnu toolchain arm-none-eabi/12.2 rel1/bin/../lib/gcc/arm-none-eabi/12.2.1/thumb/v7+fp/hard\libg_nano.a(libc_a-lock.o)
                0x1001c9a6                __retarget_lock_acquire_recursive
 .text.__retarget_lock_release_recursive
                0x1001c9a8        0x2 d:/program files/gcc/arm gnu toolchain arm-none-eabi/12.2 rel1/bin/../lib/gcc/arm-none-eabi/12.2.1/thumb/v7+fp/hard\libg_nano.a(libc_a-lock.o)
                0x1001c9a8                __retarget_lock_release_recursive
 .text.memchr   0x1001c9aa       0x1c d:/program files/gcc/arm gnu toolchain arm-none-eabi/12.2 rel1/bin/../lib/gcc/arm-none-eabi/12.2.1/thumb/v7+fp/hard\libg_nano.a(libc_a-memchr-stub.o)
                0x1001c9aa                memchr
 .text.memcpy   0x1001c9c6       0x1a d:/program files/gcc/arm gnu toolchain arm-none-eabi/12.2 rel1/bin/../lib/gcc/arm-none-eabi/12.2.1/thumb/v7+fp/hard\libg_nano.a(libc_a-memcpy-stub.o)
                0x1001c9c6                memcpy
 .text          0x1001c9e0       0x10 d:/program files/gcc/arm gnu toolchain arm-none-eabi/12.2 rel1/bin/../lib/gcc/arm-none-eabi/12.2.1/thumb/v7+fp/hard\libg_nano.a(libc_a-strlen.o)
                0x1001c9e0                strlen
 .text.quorem   0x1001c9f0      0x128 d:/program files/gcc/arm gnu toolchain arm-none-eabi/12.2 rel1/bin/../lib/gcc/arm-none-eabi/12.2.1/thumb/v7+fp/hard\libg_nano.a(libc_a-dtoa.o)
 .text._dtoa_r  0x1001cb18      0xb18 d:/program files/gcc/arm gnu toolchain arm-none-eabi/12.2 rel1/bin/../lib/gcc/arm-none-eabi/12.2.1/thumb/v7+fp/hard\libg_nano.a(libc_a-dtoa.o)
                0x1001cb18                _dtoa_r
 .text._free_r  0x1001d630       0x94 d:/program files/gcc/arm gnu toolchain arm-none-eabi/12.2 rel1/bin/../lib/gcc/arm-none-eabi/12.2.1/thumb/v7+fp/hard\libg_nano.a(libc_a-freer.o)
                0x1001d630                _free_r
 .text._Balloc  0x1001d6c4       0x80 d:/program files/gcc/arm gnu toolchain arm-none-eabi/12.2 rel1/bin/../lib/gcc/arm-none-eabi/12.2.1/thumb/v7+fp/hard\libg_nano.a(libc_a-mprec.o)
                0x1001d6c4                _Balloc
 .text._Bfree   0x1001d744       0x44 d:/program files/gcc/arm gnu toolchain arm-none-eabi/12.2 rel1/bin/../lib/gcc/arm-none-eabi/12.2.1/thumb/v7+fp/hard\libg_nano.a(libc_a-mprec.o)
                0x1001d744                _Bfree
 .text.__multadd
                0x1001d788       0x90 d:/program files/gcc/arm gnu toolchain arm-none-eabi/12.2 rel1/bin/../lib/gcc/arm-none-eabi/12.2.1/thumb/v7+fp/hard\libg_nano.a(libc_a-mprec.o)
                0x1001d788                __multadd
 .text.__hi0bits
                0x1001d818       0x44 d:/program files/gcc/arm gnu toolchain arm-none-eabi/12.2 rel1/bin/../lib/gcc/arm-none-eabi/12.2.1/thumb/v7+fp/hard\libg_nano.a(libc_a-mprec.o)
                0x1001d818                __hi0bits
 .text.__lo0bits
                0x1001d85c       0x58 d:/program files/gcc/arm gnu toolchain arm-none-eabi/12.2 rel1/bin/../lib/gcc/arm-none-eabi/12.2.1/thumb/v7+fp/hard\libg_nano.a(libc_a-mprec.o)
                0x1001d85c                __lo0bits
 .text.__i2b    0x1001d8b4       0x2c d:/program files/gcc/arm gnu toolchain arm-none-eabi/12.2 rel1/bin/../lib/gcc/arm-none-eabi/12.2.1/thumb/v7+fp/hard\libg_nano.a(libc_a-mprec.o)
                0x1001d8b4                __i2b
 .text.__multiply
                0x1001d8e0      0x154 d:/program files/gcc/arm gnu toolchain arm-none-eabi/12.2 rel1/bin/../lib/gcc/arm-none-eabi/12.2.1/thumb/v7+fp/hard\libg_nano.a(libc_a-mprec.o)
                0x1001d8e0                __multiply
 .text.__pow5mult
                0x1001da34       0xb4 d:/program files/gcc/arm gnu toolchain arm-none-eabi/12.2 rel1/bin/../lib/gcc/arm-none-eabi/12.2.1/thumb/v7+fp/hard\libg_nano.a(libc_a-mprec.o)
                0x1001da34                __pow5mult
 .text.__lshift
                0x1001dae8       0xd8 d:/program files/gcc/arm gnu toolchain arm-none-eabi/12.2 rel1/bin/../lib/gcc/arm-none-eabi/12.2.1/thumb/v7+fp/hard\libg_nano.a(libc_a-mprec.o)
                0x1001dae8                __lshift
 .text.__mcmp   0x1001dbc0       0x36 d:/program files/gcc/arm gnu toolchain arm-none-eabi/12.2 rel1/bin/../lib/gcc/arm-none-eabi/12.2.1/thumb/v7+fp/hard\libg_nano.a(libc_a-mprec.o)
                0x1001dbc0                __mcmp
 *fill*         0x1001dbf6        0x2 
 .text.__mdiff  0x1001dbf8      0x12c d:/program files/gcc/arm gnu toolchain arm-none-eabi/12.2 rel1/bin/../lib/gcc/arm-none-eabi/12.2.1/thumb/v7+fp/hard\libg_nano.a(libc_a-mprec.o)
                0x1001dbf8                __mdiff
 .text.__d2b    0x1001dd24       0xb0 d:/program files/gcc/arm gnu toolchain arm-none-eabi/12.2 rel1/bin/../lib/gcc/arm-none-eabi/12.2.1/thumb/v7+fp/hard\libg_nano.a(libc_a-mprec.o)
                0x1001dd24                __d2b
 .text.__sfputc_r
                0x1001ddd4       0x2e d:/program files/gcc/arm gnu toolchain arm-none-eabi/12.2 rel1/bin/../lib/gcc/arm-none-eabi/12.2.1/thumb/v7+fp/hard\libg_nano.a(libc_a-nano-vfprintf.o)
 .text.__sfputs_r
                0x1001de02       0x24 d:/program files/gcc/arm gnu toolchain arm-none-eabi/12.2 rel1/bin/../lib/gcc/arm-none-eabi/12.2.1/thumb/v7+fp/hard\libg_nano.a(libc_a-nano-vfprintf.o)
                0x1001de02                __sfputs_r
 *fill*         0x1001de26        0x2 
 .text._vfprintf_r
                0x1001de28      0x230 d:/program files/gcc/arm gnu toolchain arm-none-eabi/12.2 rel1/bin/../lib/gcc/arm-none-eabi/12.2.1/thumb/v7+fp/hard\libg_nano.a(libc_a-nano-vfprintf.o)
                0x1001de28                _vfprintf_r
                0x1001de28                _vfiprintf_r
 .text.__sflush_r
                0x1001e058      0x108 d:/program files/gcc/arm gnu toolchain arm-none-eabi/12.2 rel1/bin/../lib/gcc/arm-none-eabi/12.2.1/thumb/v7+fp/hard\libg_nano.a(libc_a-fflush.o)
                0x1001e058                __sflush_r
 .text._fflush_r
                0x1001e160       0x50 d:/program files/gcc/arm gnu toolchain arm-none-eabi/12.2 rel1/bin/../lib/gcc/arm-none-eabi/12.2.1/thumb/v7+fp/hard\libg_nano.a(libc_a-fflush.o)
                0x1001e160                _fflush_r
 .text.std      0x1001e1b0       0x6c d:/program files/gcc/arm gnu toolchain arm-none-eabi/12.2 rel1/bin/../lib/gcc/arm-none-eabi/12.2.1/thumb/v7+fp/hard\libg_nano.a(libc_a-findfp.o)
 .text.stdio_exit_handler
                0x1001e21c       0x18 d:/program files/gcc/arm gnu toolchain arm-none-eabi/12.2 rel1/bin/../lib/gcc/arm-none-eabi/12.2.1/thumb/v7+fp/hard\libg_nano.a(libc_a-findfp.o)
 .text.cleanup_stdio
                0x1001e234       0x40 d:/program files/gcc/arm gnu toolchain arm-none-eabi/12.2 rel1/bin/../lib/gcc/arm-none-eabi/12.2.1/thumb/v7+fp/hard\libg_nano.a(libc_a-findfp.o)
 .text.global_stdio_init.part.0
                0x1001e274       0x3c d:/program files/gcc/arm gnu toolchain arm-none-eabi/12.2 rel1/bin/../lib/gcc/arm-none-eabi/12.2.1/thumb/v7+fp/hard\libg_nano.a(libc_a-findfp.o)
 .text.__sfp_lock_acquire
                0x1001e2b0        0xc d:/program files/gcc/arm gnu toolchain arm-none-eabi/12.2 rel1/bin/../lib/gcc/arm-none-eabi/12.2.1/thumb/v7+fp/hard\libg_nano.a(libc_a-findfp.o)
                0x1001e2b0                __sfp_lock_acquire
 .text.__sfp_lock_release
                0x1001e2bc        0xc d:/program files/gcc/arm gnu toolchain arm-none-eabi/12.2 rel1/bin/../lib/gcc/arm-none-eabi/12.2.1/thumb/v7+fp/hard\libg_nano.a(libc_a-findfp.o)
                0x1001e2bc                __sfp_lock_release
 .text.__sinit  0x1001e2c8       0x30 d:/program files/gcc/arm gnu toolchain arm-none-eabi/12.2 rel1/bin/../lib/gcc/arm-none-eabi/12.2.1/thumb/v7+fp/hard\libg_nano.a(libc_a-findfp.o)
                0x1001e2c8                __sinit
 .text._fwalk_sglue
                0x1001e2f8       0x3c d:/program files/gcc/arm gnu toolchain arm-none-eabi/12.2 rel1/bin/../lib/gcc/arm-none-eabi/12.2.1/thumb/v7+fp/hard\libg_nano.a(libc_a-fwalk.o)
                0x1001e2f8                _fwalk_sglue
 .text.__swhatbuf_r
                0x1001e334       0x4a d:/program files/gcc/arm gnu toolchain arm-none-eabi/12.2 rel1/bin/../lib/gcc/arm-none-eabi/12.2.1/thumb/v7+fp/hard\libg_nano.a(libc_a-makebuf.o)
                0x1001e334                __swhatbuf_r
 .text.__smakebuf_r
                0x1001e37e       0x78 d:/program files/gcc/arm gnu toolchain arm-none-eabi/12.2 rel1/bin/../lib/gcc/arm-none-eabi/12.2.1/thumb/v7+fp/hard\libg_nano.a(libc_a-makebuf.o)
                0x1001e37e                __smakebuf_r
 .text.__sread  0x1001e3f6       0x22 d:/program files/gcc/arm gnu toolchain arm-none-eabi/12.2 rel1/bin/../lib/gcc/arm-none-eabi/12.2.1/thumb/v7+fp/hard\libg_nano.a(libc_a-stdio.o)
                0x1001e3f6                __sread
 .text.__swrite
                0x1001e418       0x38 d:/program files/gcc/arm gnu toolchain arm-none-eabi/12.2 rel1/bin/../lib/gcc/arm-none-eabi/12.2.1/thumb/v7+fp/hard\libg_nano.a(libc_a-stdio.o)
                0x1001e418                __swrite
 .text.__sseek  0x1001e450       0x24 d:/program files/gcc/arm gnu toolchain arm-none-eabi/12.2 rel1/bin/../lib/gcc/arm-none-eabi/12.2.1/thumb/v7+fp/hard\libg_nano.a(libc_a-stdio.o)
                0x1001e450                __sseek
 .text.__sclose
                0x1001e474        0x8 d:/program files/gcc/arm gnu toolchain arm-none-eabi/12.2 rel1/bin/../lib/gcc/arm-none-eabi/12.2.1/thumb/v7+fp/hard\libg_nano.a(libc_a-stdio.o)
                0x1001e474                __sclose
 .text._close_r
                0x1001e47c       0x20 d:/program files/gcc/arm gnu toolchain arm-none-eabi/12.2 rel1/bin/../lib/gcc/arm-none-eabi/12.2.1/thumb/v7+fp/hard\libg_nano.a(libc_a-closer.o)
                0x1001e47c                _close_r
 .text._fstat_r
                0x1001e49c       0x24 d:/program files/gcc/arm gnu toolchain arm-none-eabi/12.2 rel1/bin/../lib/gcc/arm-none-eabi/12.2.1/thumb/v7+fp/hard\libg_nano.a(libc_a-fstatr.o)
                0x1001e49c                _fstat_r
 .text._isatty_r
                0x1001e4c0       0x20 d:/program files/gcc/arm gnu toolchain arm-none-eabi/12.2 rel1/bin/../lib/gcc/arm-none-eabi/12.2.1/thumb/v7+fp/hard\libg_nano.a(libc_a-isattyr.o)
                0x1001e4c0                _isatty_r
 .text._lseek_r
                0x1001e4e0       0x24 d:/program files/gcc/arm gnu toolchain arm-none-eabi/12.2 rel1/bin/../lib/gcc/arm-none-eabi/12.2.1/thumb/v7+fp/hard\libg_nano.a(libc_a-lseekr.o)
                0x1001e4e0                _lseek_r
 .text._read_r  0x1001e504       0x24 d:/program files/gcc/arm gnu toolchain arm-none-eabi/12.2 rel1/bin/../lib/gcc/arm-none-eabi/12.2.1/thumb/v7+fp/hard\libg_nano.a(libc_a-readr.o)
                0x1001e504                _read_r
 .text._write_r
                0x1001e528       0x24 d:/program files/gcc/arm gnu toolchain arm-none-eabi/12.2 rel1/bin/../lib/gcc/arm-none-eabi/12.2.1/thumb/v7+fp/hard\libg_nano.a(libc_a-writer.o)
                0x1001e528                _write_r
 .text.__assert_func
                0x1001e54c       0x3c d:/program files/gcc/arm gnu toolchain arm-none-eabi/12.2 rel1/bin/../lib/gcc/arm-none-eabi/12.2.1/thumb/v7+fp/hard\libg_nano.a(libc_a-assert.o)
                0x1001e54c                __assert_func
 .text._calloc_r
                0x1001e588       0x28 d:/program files/gcc/arm gnu toolchain arm-none-eabi/12.2 rel1/bin/../lib/gcc/arm-none-eabi/12.2.1/thumb/v7+fp/hard\libg_nano.a(libc_a-callocr.o)
                0x1001e588                _calloc_r
 .text.__ascii_mbtowc
                0x1001e5b0       0x24 d:/program files/gcc/arm gnu toolchain arm-none-eabi/12.2 rel1/bin/../lib/gcc/arm-none-eabi/12.2.1/thumb/v7+fp/hard\libg_nano.a(libc_a-mbtowc_r.o)
                0x1001e5b0                __ascii_mbtowc
 .text.__ascii_wctomb
                0x1001e5d4       0x1a d:/program files/gcc/arm gnu toolchain arm-none-eabi/12.2 rel1/bin/../lib/gcc/arm-none-eabi/12.2.1/thumb/v7+fp/hard\libg_nano.a(libc_a-wctomb_r.o)
                0x1001e5d4                __ascii_wctomb
 *fill*         0x1001e5ee        0x2 
 .text.fprintf  0x1001e5f0       0x24 d:/program files/gcc/arm gnu toolchain arm-none-eabi/12.2 rel1/bin/../lib/gcc/arm-none-eabi/12.2.1/thumb/v7+fp/hard\libg_nano.a(libc_a-fprintf.o)
                0x1001e5f0                fiprintf
                0x1001e5f0                fprintf
 .text.abort    0x1001e614        0xe d:/program files/gcc/arm gnu toolchain arm-none-eabi/12.2 rel1/bin/../lib/gcc/arm-none-eabi/12.2.1/thumb/v7+fp/hard\libg_nano.a(libc_a-abort.o)
                0x1001e614                abort
 .text._raise_r
                0x1001e622       0x50 d:/program files/gcc/arm gnu toolchain arm-none-eabi/12.2 rel1/bin/../lib/gcc/arm-none-eabi/12.2.1/thumb/v7+fp/hard\libg_nano.a(libc_a-signal.o)
                0x1001e622                _raise_r
 *fill*         0x1001e672        0x2 
 .text.raise    0x1001e674       0x10 d:/program files/gcc/arm gnu toolchain arm-none-eabi/12.2 rel1/bin/../lib/gcc/arm-none-eabi/12.2.1/thumb/v7+fp/hard\libg_nano.a(libc_a-signal.o)
                0x1001e674                raise
 .text._kill_r  0x1001e684       0x24 d:/program files/gcc/arm gnu toolchain arm-none-eabi/12.2 rel1/bin/../lib/gcc/arm-none-eabi/12.2.1/thumb/v7+fp/hard\libg_nano.a(libc_a-signalr.o)
                0x1001e684                _kill_r
 .text._getpid_r
                0x1001e6a8        0x4 d:/program files/gcc/arm gnu toolchain arm-none-eabi/12.2 rel1/bin/../lib/gcc/arm-none-eabi/12.2.1/thumb/v7+fp/hard\libg_nano.a(libc_a-signalr.o)
                0x1001e6a8                _getpid_r
 *fill*         0x1001e6ac        0x4 
 .text          0x1001e6b0      0x278 d:/program files/gcc/arm gnu toolchain arm-none-eabi/12.2 rel1/bin/../lib/gcc/arm-none-eabi/12.2.1/thumb/v7+fp/hard\libgcc.a(_udivsi3.o)
                0x1001e6b0                __aeabi_uidiv
                0x1001e6b0                __udivsi3
                0x1001e90c                __aeabi_uidivmod
 .text          0x1001e928      0x2b0 d:/program files/gcc/arm gnu toolchain arm-none-eabi/12.2 rel1/bin/../lib/gcc/arm-none-eabi/12.2.1/thumb/v7+fp/hard\libgcc.a(_divsi3.o)
                0x1001e928                __divsi3
                0x1001e928                __aeabi_idiv
                0x1001ebbc                __aeabi_idivmod
 *(.reset_handler)
 .reset_handler
                0x1001ebd8       0x2c ./rzn/fsp/src/bsp/cmsis/Device/RENESAS/Source/cr/startup_core.o
                0x1001ebd8                Reset_Handler
 *fill*         0x1001ec04        0x4 
 .reset_handler.__stub
                0x1001ec08        0x8 linker stubs
 *(.init)
 *(.fini)
 *crtbegin.o(.ctors)
 *crtbegin?.o(.ctors)
 *(EXCLUDE_FILE(*crtend.o *crtend?.o) .ctors)
 *(SORT_BY_NAME(.ctors.*))
 *(.ctors)
                0x1001ec10                _ctor_end = .
 *crtbegin.o(.dtors)
 *crtbegin?.o(.dtors)
 *(EXCLUDE_FILE(*crtend.o *crtend?.o) .dtors)
 *(SORT_BY_NAME(.dtors.*))
 *(.dtors)
                0x1001ec10                _dtor_end = .
 *(.eh_frame*)

.glue_7         0x1001ec10        0x0 load address 0x6010ec6c
 .glue_7        0x1001ec10        0x0 linker stubs

.glue_7t        0x1001ec10        0x0 load address 0x6010ec6c
 .glue_7t       0x1001ec10        0x0 linker stubs

.vfp11_veneer   0x1001ec10        0x0 load address 0x6010ec6c
 .vfp11_veneer  0x1001ec10        0x0 linker stubs

.v4_bx          0x1001ec10        0x0 load address 0x6010ec6c
 .v4_bx         0x1001ec10        0x0 linker stubs

.iplt           0x1001ec10        0x0 load address 0x6010ec6c
 .iplt          0x1001ec10        0x0 ./src/ethercat/renesas/sampleappl.o

.warm_start     0x1001ec10       0x1e load address 0x6010ec6c
 .warm_start    0x1001ec10       0x1e ./src/hal_entry.o
                0x1001ec10                R_BSP_WarmStart

.loader_text    0x1001ec30       0x18 load address 0x6010ec8c
 .loader_text   0x1001ec30       0x18 ./rzn/fsp/src/bsp/cmsis/Device/RENESAS/Source/cr/startup_core.o
                0x1001ec30                system_init

.rvectors       0x1001ec48        0x0
                0x1001ec48                _rvectors_start = .
 *(.rvectors)
                0x1001ec48                _rvectors_end = .

.ARM.extab
 *(.ARM.extab* .gnu.linkonce.armextab.*)
                0x1001ec48                __exidx_start = .

.ARM.exidx      0x1001ec48        0x8 load address 0x6010eca4
 *(.ARM.exidx* .gnu.linkonce.armexidx.*)
 .ARM.exidx.text.__udivmoddi4
                0x1001ec48        0x8 d:/program files/gcc/arm gnu toolchain arm-none-eabi/12.2 rel1/bin/../lib/gcc/arm-none-eabi/12.2.1/thumb/v7+fp/hard\libgcc.a(_udivmoddi4.o)
                0x1001ec50                __exidx_end = .

.rel.dyn        0x1001ec50        0x0 load address 0x6010ecac
 .rel.iplt      0x1001ec50        0x0 ./src/ethercat/renesas/sampleappl.o

.got            0x1001ec50        0x0 load address 0x6010ecac
 *(.got)
 *(.got.plt)
                0x1001ec50                . = ALIGN (0x10)
 *fill*         0x1001ec50        0x0 
                0x1001ec50                _text_end = .

.data           0x1001ec50     0x3d10 load address 0x6010ecac
                0x1001ec50                _data_start = .
 *(vtable)
 *(.data.*)
 .data.FirmwareWritableBank
                0x1001ec50        0x1 ./src/ethercat/renesas/samplefoe.o
                0x1001ec50                FirmwareWritableBank
 *fill*         0x1001ec51        0x3 
 .data.DefCiA402AxisObjDic
                0x1001ec54      0x7d0 ./src/ethercat/beckhoff/Src/cia402appl.o
                0x1001ec54                DefCiA402AxisObjDic
 .data.ApplicationObjDic
                0x1001f424      0x118 ./src/ethercat/beckhoff/Src/cia402appl.o
                0x1001f424                ApplicationObjDic
 .data.DefCiA402ObjectValues
                0x1001f53c      0x18c ./src/ethercat/beckhoff/Src/cia402appl.o
                0x1001f53c                DefCiA402ObjectValues
 .data.sDetectedModuleIdentList
                0x1001f6c8        0xc ./src/ethercat/beckhoff/Src/cia402appl.o
                0x1001f6c8                sDetectedModuleIdentList
 .data.sConfiguredModuleIdentList
                0x1001f6d4        0xc ./src/ethercat/beckhoff/Src/cia402appl.o
                0x1001f6d4                sConfiguredModuleIdentList
 .data.sModuleProfileInfo
                0x1001f6e0        0xc ./src/ethercat/beckhoff/Src/cia402appl.o
                0x1001f6e0                sModuleProfileInfo
 .data.sModulardeviceprofile
                0x1001f6ec        0x6 ./src/ethercat/beckhoff/Src/cia402appl.o
                0x1001f6ec                sModulardeviceprofile
 *fill*         0x1001f6f2        0x2 
 .data.sTxPDOassign
                0x1001f6f4        0x6 ./src/ethercat/beckhoff/Src/cia402appl.o
                0x1001f6f4                sTxPDOassign
 *fill*         0x1001f6fa        0x2 
 .data.sRxPDOassign
                0x1001f6fc        0x6 ./src/ethercat/beckhoff/Src/cia402appl.o
                0x1001f6fc                sRxPDOassign
 *fill*         0x1001f702        0x2 
 .data.GenObjDic
                0x1001f704      0x1e0 ./src/ethercat/beckhoff/Src/coeappl.o
                0x1001f704                GenObjDic
 .data.sSyncmanagertype
                0x1001f8e4        0x6 ./src/ethercat/beckhoff/Src/coeappl.o
                0x1001f8e4                sSyncmanagertype
 *fill*         0x1001f8ea        0x2 
 .data.sIdentity
                0x1001f8ec       0x14 ./src/ethercat/beckhoff/Src/coeappl.o
                0x1001f8ec                sIdentity
 .data.acSoftwareversion
                0x1001f900        0x4 ./src/ethercat/beckhoff/Src/coeappl.o
                0x1001f900                acSoftwareversion
 .data.acHardwareversion
                0x1001f904        0x4 ./src/ethercat/beckhoff/Src/coeappl.o
                0x1001f904                acHardwareversion
 .data.acDevicename
                0x1001f908       0x17 ./src/ethercat/beckhoff/Src/coeappl.o
                0x1001f908                acDevicename
 *fill*         0x1001f91f        0x1 
 .data.u32Devicetype
                0x1001f920        0x4 ./src/ethercat/beckhoff/Src/coeappl.o
                0x1001f920                u32Devicetype
 .data.FoEApplicationObjDic
                0x1001f924       0x50 ./src/ethercat/beckhoff/Src/coeappl.o
                0x1001f924                FoEApplicationObjDic
 .data.aSubindexDesc
                0x1001f974        0xd ./src/ethercat/beckhoff/Src/objdef.o
                0x1001f974                aSubindexDesc
 *fill*         0x1001f981        0x3 
 .data.sErrorSettings
                0x1001f984        0xc ./src/ethercat/beckhoff/Src/objdef.o
                0x1001f984                sErrorSettings
 .data.g_current_bank
                0x1001f990        0x1 ./src/common/bank_detection.o
 *fill*         0x1001f991        0x3 
 .data.gp_ethercat_ssc_port
                0x1001f994        0x4 ./rzn_gen/common_data.o
                0x1001f994                gp_ethercat_ssc_port
 .data.g_uart0_baud_setting
                0x1001f998        0x4 ./rzn_gen/hal_data.o
                0x1001f998                g_uart0_baud_setting
 .data.g_qspi0_timing_settings
                0x1001f99c        0x3 ./rzn_gen/hal_data.o
 *fill*         0x1001f99f        0x1 
 .data._impure_ptr
                0x1001f9a0        0x4 d:/program files/gcc/arm gnu toolchain arm-none-eabi/12.2 rel1/bin/../lib/gcc/arm-none-eabi/12.2.1/thumb/v7+fp/hard\libg_nano.a(libc_a-impure.o)
                0x1001f9a0                _impure_ptr
 .data._impure_data
                0x1001f9a4       0x4c d:/program files/gcc/arm gnu toolchain arm-none-eabi/12.2 rel1/bin/../lib/gcc/arm-none-eabi/12.2.1/thumb/v7+fp/hard\libg_nano.a(libc_a-impure.o)
                0x1001f9a4                _impure_data
 .data.__sglue  0x1001f9f0        0xc d:/program files/gcc/arm gnu toolchain arm-none-eabi/12.2 rel1/bin/../lib/gcc/arm-none-eabi/12.2.1/thumb/v7+fp/hard\libg_nano.a(libc_a-findfp.o)
                0x1001f9f0                __sglue
 .data.__global_locale
                0x1001f9fc      0x16c d:/program files/gcc/arm gnu toolchain arm-none-eabi/12.2 rel1/bin/../lib/gcc/arm-none-eabi/12.2.1/thumb/v7+fp/hard\libg_nano.a(libc_a-locale.o)
                0x1001f9fc                __global_locale
 *(.data)
 *(.rodata*)
 .rodata.g_sample_dip_sws
                0x1001fb68        0x8 ./src/ethercat/renesas/sampleios.o
                0x1001fb68                g_sample_dip_sws
 .rodata.g_sample_leds
                0x1001fb70        0x8 ./src/ethercat/renesas/sampleios.o
                0x1001fb70                g_sample_leds
 .rodata.g_sample_prv_leds
                0x1001fb78        0x8 ./src/ethercat/renesas/sampleios.o
 .rodata.g_sample_prv_dip_sws
                0x1001fb80        0x8 ./src/ethercat/renesas/sampleios.o
 .rodata.BL_Start.str1.4
                0x1001fb88       0x25 ./src/ethercat/beckhoff/Src/bootmode.o
 *fill*         0x1001fbad        0x3 
 .rodata.BL_Stop.str1.4
                0x1001fbb0        0xb ./src/ethercat/beckhoff/Src/bootmode.o
 *fill*         0x1001fbbb        0x1 
 .rodata.BL_StartDownload.str1.4
                0x1001fbbc       0x7a ./src/ethercat/beckhoff/Src/bootmode.o
 *fill*         0x1001fc36        0x2 
 .rodata.BL_Data.str1.4
                0x1001fc38      0x2db ./src/ethercat/beckhoff/Src/bootmode.o
 *fill*         0x1001ff13        0x1 
 .rodata.__FUNCTION__.0
                0x1001ff14        0x8 ./src/ethercat/beckhoff/Src/bootmode.o
 .rodata.__FUNCTION__.1
                0x1001ff1c        0x9 ./src/ethercat/beckhoff/Src/bootmode.o
 *fill*         0x1001ff25        0x3 
 .rodata.aName0xF050
                0x1001ff28       0x1b ./src/ethercat/beckhoff/Src/cia402appl.o
                0x1001ff28                aName0xF050
 *fill*         0x1001ff43        0x1 
 .rodata.asEntryDesc0xF050
                0x1001ff44       0x12 ./src/ethercat/beckhoff/Src/cia402appl.o
                0x1001ff44                asEntryDesc0xF050
 *fill*         0x1001ff56        0x2 
 .rodata.aName0xF030
                0x1001ff58       0x1d ./src/ethercat/beckhoff/Src/cia402appl.o
                0x1001ff58                aName0xF030
 *fill*         0x1001ff75        0x3 
 .rodata.asEntryDesc0xF030
                0x1001ff78       0x12 ./src/ethercat/beckhoff/Src/cia402appl.o
                0x1001ff78                asEntryDesc0xF030
 *fill*         0x1001ff8a        0x2 
 .rodata.aName0xF010
                0x1001ff8c       0x14 ./src/ethercat/beckhoff/Src/cia402appl.o
                0x1001ff8c                aName0xF010
 .rodata.asEntryDesc0xF010
                0x1001ffa0       0x12 ./src/ethercat/beckhoff/Src/cia402appl.o
                0x1001ffa0                asEntryDesc0xF010
 *fill*         0x1001ffb2        0x2 
 .rodata.aName0xF000
                0x1001ffb4       0x42 ./src/ethercat/beckhoff/Src/cia402appl.o
                0x1001ffb4                aName0xF000
 *fill*         0x1001fff6        0x2 
 .rodata.asEntryDesc0xF000
                0x1001fff8       0x12 ./src/ethercat/beckhoff/Src/cia402appl.o
                0x1001fff8                asEntryDesc0xF000
 *fill*         0x1002000a        0x2 
 .rodata.aName0x6502
                0x1002000c       0x16 ./src/ethercat/beckhoff/Src/cia402appl.o
                0x1002000c                aName0x6502
 *fill*         0x10020022        0x2 
 .rodata.sEntryDesc0x6502
                0x10020024        0x6 ./src/ethercat/beckhoff/Src/cia402appl.o
                0x10020024                sEntryDesc0x6502
 *fill*         0x1002002a        0x2 
 .rodata.aName0x6402
                0x1002002c        0xb ./src/ethercat/beckhoff/Src/cia402appl.o
                0x1002002c                aName0x6402
 *fill*         0x10020037        0x1 
 .rodata.sEntryDesc0x6402
                0x10020038        0x6 ./src/ethercat/beckhoff/Src/cia402appl.o
                0x10020038                sEntryDesc0x6402
 *fill*         0x1002003e        0x2 
 .rodata.aName0x60FF
                0x10020040       0x10 ./src/ethercat/beckhoff/Src/cia402appl.o
                0x10020040                aName0x60FF
 .rodata.sEntryDesc0x60FF
                0x10020050        0x6 ./src/ethercat/beckhoff/Src/cia402appl.o
                0x10020050                sEntryDesc0x60FF
 *fill*         0x10020056        0x2 
 .rodata.aName0x60FE
                0x10020058       0x2c ./src/ethercat/beckhoff/Src/cia402appl.o
                0x10020058                aName0x60FE
 .rodata.asEntryDesc0x60FE
                0x10020084       0x12 ./src/ethercat/beckhoff/Src/cia402appl.o
                0x10020084                asEntryDesc0x60FE
 *fill*         0x10020096        0x2 
 .rodata.aName0x60FD
                0x10020098        0xf ./src/ethercat/beckhoff/Src/cia402appl.o
                0x10020098                aName0x60FD
 *fill*         0x100200a7        0x1 
 .rodata.sEntryDesc0x60FD
                0x100200a8        0x6 ./src/ethercat/beckhoff/Src/cia402appl.o
                0x100200a8                sEntryDesc0x60FD
 *fill*         0x100200ae        0x2 
 .rodata.aName0x60F4
                0x100200b0       0x1d ./src/ethercat/beckhoff/Src/cia402appl.o
                0x100200b0                aName0x60F4
 *fill*         0x100200cd        0x3 
 .rodata.sEntryDesc0x60F4
                0x100200d0        0x6 ./src/ethercat/beckhoff/Src/cia402appl.o
                0x100200d0                sEntryDesc0x60F4
 *fill*         0x100200d6        0x2 
 .rodata.aName0x60E1
                0x100200d8       0x1c ./src/ethercat/beckhoff/Src/cia402appl.o
                0x100200d8                aName0x60E1
 .rodata.sEntryDesc0x60E1
                0x100200f4        0x6 ./src/ethercat/beckhoff/Src/cia402appl.o
                0x100200f4                sEntryDesc0x60E1
 *fill*         0x100200fa        0x2 
 .rodata.aName0x60E0
                0x100200fc       0x1c ./src/ethercat/beckhoff/Src/cia402appl.o
                0x100200fc                aName0x60E0
 .rodata.sEntryDesc0x60E0
                0x10020118        0x6 ./src/ethercat/beckhoff/Src/cia402appl.o
                0x10020118                sEntryDesc0x60E0
 *fill*         0x1002011e        0x2 
 .rodata.aName0x60D0
                0x10020120       0x2a ./src/ethercat/beckhoff/Src/cia402appl.o
                0x10020120                aName0x60D0
 *fill*         0x1002014a        0x2 
 .rodata.asEntryDesc0x60D0
                0x1002014c        0xc ./src/ethercat/beckhoff/Src/cia402appl.o
                0x1002014c                asEntryDesc0x60D0
 .rodata.aName0x60C2
                0x10020158       0x55 ./src/ethercat/beckhoff/Src/cia402appl.o
                0x10020158                aName0x60C2
 *fill*         0x100201ad        0x3 
 .rodata.asEntryDesc0x60C2
                0x100201b0       0x12 ./src/ethercat/beckhoff/Src/cia402appl.o
                0x100201b0                asEntryDesc0x60C2
 *fill*         0x100201c2        0x2 
 .rodata.aName0x60BB
                0x100201c4       0x26 ./src/ethercat/beckhoff/Src/cia402appl.o
                0x100201c4                aName0x60BB
 *fill*         0x100201ea        0x2 
 .rodata.sEntryDesc0x60BB
                0x100201ec        0x6 ./src/ethercat/beckhoff/Src/cia402appl.o
                0x100201ec                sEntryDesc0x60BB
 *fill*         0x100201f2        0x2 
 .rodata.aName0x60BA
                0x100201f4       0x26 ./src/ethercat/beckhoff/Src/cia402appl.o
                0x100201f4                aName0x60BA
 *fill*         0x1002021a        0x2 
 .rodata.sEntryDesc0x60BA
                0x1002021c        0x6 ./src/ethercat/beckhoff/Src/cia402appl.o
                0x1002021c                sEntryDesc0x60BA
 *fill*         0x10020222        0x2 
 .rodata.aName0x60B9
                0x10020224       0x13 ./src/ethercat/beckhoff/Src/cia402appl.o
                0x10020224                aName0x60B9
 *fill*         0x10020237        0x1 
 .rodata.sEntryDesc0x60B9
                0x10020238        0x6 ./src/ethercat/beckhoff/Src/cia402appl.o
                0x10020238                sEntryDesc0x60B9
 *fill*         0x1002023e        0x2 
 .rodata.aName0x60B8
                0x10020240       0x15 ./src/ethercat/beckhoff/Src/cia402appl.o
                0x10020240                aName0x60B8
 *fill*         0x10020255        0x3 
 .rodata.sEntryDesc0x60B8
                0x10020258        0x6 ./src/ethercat/beckhoff/Src/cia402appl.o
                0x10020258                sEntryDesc0x60B8
 *fill*         0x1002025e        0x2 
 .rodata.aName0x60B2
                0x10020260        0xe ./src/ethercat/beckhoff/Src/cia402appl.o
                0x10020260                aName0x60B2
 *fill*         0x1002026e        0x2 
 .rodata.sEntryDesc0x60B2
                0x10020270        0x6 ./src/ethercat/beckhoff/Src/cia402appl.o
                0x10020270                sEntryDesc0x60B2
 *fill*         0x10020276        0x2 
 .rodata.aName0x60B1
                0x10020278       0x10 ./src/ethercat/beckhoff/Src/cia402appl.o
                0x10020278                aName0x60B1
 .rodata.sEntryDesc0x60B1
                0x10020288        0x6 ./src/ethercat/beckhoff/Src/cia402appl.o
                0x10020288                sEntryDesc0x60B1
 *fill*         0x1002028e        0x2 
 .rodata.aName0x60B0
                0x10020290       0x10 ./src/ethercat/beckhoff/Src/cia402appl.o
                0x10020290                aName0x60B0
 .rodata.sEntryDesc0x60B0
                0x100202a0        0x6 ./src/ethercat/beckhoff/Src/cia402appl.o
                0x100202a0                sEntryDesc0x60B0
 *fill*         0x100202a6        0x2 
 .rodata.aName0x6099
                0x100202a8       0x4c ./src/ethercat/beckhoff/Src/cia402appl.o
                0x100202a8                aName0x6099
 .rodata.asEntryDesc0x6099
                0x100202f4       0x12 ./src/ethercat/beckhoff/Src/cia402appl.o
                0x100202f4                asEntryDesc0x6099
 *fill*         0x10020306        0x2 
 .rodata.aName0x6091
                0x10020308       0x31 ./src/ethercat/beckhoff/Src/cia402appl.o
                0x10020308                aName0x6091
 *fill*         0x10020339        0x3 
 .rodata.asEntryDesc0x6091
                0x1002033c       0x12 ./src/ethercat/beckhoff/Src/cia402appl.o
                0x1002033c                asEntryDesc0x6091
 *fill*         0x1002034e        0x2 
 .rodata.aName0x6085
                0x10020350       0x18 ./src/ethercat/beckhoff/Src/cia402appl.o
                0x10020350                aName0x6085
 .rodata.sEntryDesc0x6085
                0x10020368        0x6 ./src/ethercat/beckhoff/Src/cia402appl.o
                0x10020368                sEntryDesc0x6085
 *fill*         0x1002036e        0x2 
 .rodata.aName0x607D
                0x10020370       0x40 ./src/ethercat/beckhoff/Src/cia402appl.o
                0x10020370                aName0x607D
 .rodata.asEntryDesc0x607D
                0x100203b0       0x12 ./src/ethercat/beckhoff/Src/cia402appl.o
                0x100203b0                asEntryDesc0x607D
 *fill*         0x100203c2        0x2 
 .rodata.aName0x607C
                0x100203c4        0xc ./src/ethercat/beckhoff/Src/cia402appl.o
                0x100203c4                aName0x607C
 .rodata.sEntryDesc0x607C
                0x100203d0        0x6 ./src/ethercat/beckhoff/Src/cia402appl.o
                0x100203d0                sEntryDesc0x607C
 *fill*         0x100203d6        0x2 
 .rodata.aName0x607B
                0x100203d8       0x49 ./src/ethercat/beckhoff/Src/cia402appl.o
                0x100203d8                aName0x607B
 *fill*         0x10020421        0x3 
 .rodata.asEntryDesc0x607B
                0x10020424       0x12 ./src/ethercat/beckhoff/Src/cia402appl.o
                0x10020424                asEntryDesc0x607B
 *fill*         0x10020436        0x2 
 .rodata.aName0x607A
                0x10020438       0x10 ./src/ethercat/beckhoff/Src/cia402appl.o
                0x10020438                aName0x607A
 .rodata.sEntryDesc0x607A
                0x10020448        0x6 ./src/ethercat/beckhoff/Src/cia402appl.o
                0x10020448                sEntryDesc0x607A
 *fill*         0x1002044e        0x2 
 .rodata.aName0x6077
                0x10020450       0x14 ./src/ethercat/beckhoff/Src/cia402appl.o
                0x10020450                aName0x6077
 .rodata.sEntryDesc0x6077
                0x10020464        0x6 ./src/ethercat/beckhoff/Src/cia402appl.o
                0x10020464                sEntryDesc0x6077
 *fill*         0x1002046a        0x2 
 .rodata.aName0x6072
                0x1002046c        0xb ./src/ethercat/beckhoff/Src/cia402appl.o
                0x1002046c                aName0x6072
 *fill*         0x10020477        0x1 
 .rodata.sEntryDesc0x6072
                0x10020478        0x6 ./src/ethercat/beckhoff/Src/cia402appl.o
                0x10020478                sEntryDesc0x6072
 *fill*         0x1002047e        0x2 
 .rodata.aName0x606C
                0x10020480       0x16 ./src/ethercat/beckhoff/Src/cia402appl.o
                0x10020480                aName0x606C
 *fill*         0x10020496        0x2 
 .rodata.sEntryDesc0x606C
                0x10020498        0x6 ./src/ethercat/beckhoff/Src/cia402appl.o
                0x10020498                sEntryDesc0x606C
 *fill*         0x1002049e        0x2 
 .rodata.aName0x6067
                0x100204a0       0x10 ./src/ethercat/beckhoff/Src/cia402appl.o
                0x100204a0                aName0x6067
 .rodata.sEntryDesc0x6067
                0x100204b0        0x6 ./src/ethercat/beckhoff/Src/cia402appl.o
                0x100204b0                sEntryDesc0x6067
 *fill*         0x100204b6        0x2 
 .rodata.aName0x6066
                0x100204b8       0x19 ./src/ethercat/beckhoff/Src/cia402appl.o
                0x100204b8                aName0x6066
 *fill*         0x100204d1        0x3 
 .rodata.sEntryDesc0x6066
                0x100204d4        0x6 ./src/ethercat/beckhoff/Src/cia402appl.o
                0x100204d4                sEntryDesc0x6066
 *fill*         0x100204da        0x2 
 .rodata.aName0x6065
                0x100204dc       0x17 ./src/ethercat/beckhoff/Src/cia402appl.o
                0x100204dc                aName0x6065
 *fill*         0x100204f3        0x1 
 .rodata.sEntryDesc0x6065
                0x100204f4        0x6 ./src/ethercat/beckhoff/Src/cia402appl.o
                0x100204f4                sEntryDesc0x6065
 *fill*         0x100204fa        0x2 
 .rodata.aName0x6064
                0x100204fc       0x16 ./src/ethercat/beckhoff/Src/cia402appl.o
                0x100204fc                aName0x6064
 *fill*         0x10020512        0x2 
 .rodata.sEntryDesc0x6064
                0x10020514        0x6 ./src/ethercat/beckhoff/Src/cia402appl.o
                0x10020514                sEntryDesc0x6064
 *fill*         0x1002051a        0x2 
 .rodata.aName0x6063
                0x1002051c       0x1f ./src/ethercat/beckhoff/Src/cia402appl.o
                0x1002051c                aName0x6063
 *fill*         0x1002053b        0x1 
 .rodata.sEntryDesc0x6063
                0x1002053c        0x6 ./src/ethercat/beckhoff/Src/cia402appl.o
                0x1002053c                sEntryDesc0x6063
 *fill*         0x10020542        0x2 
 .rodata.aName0x6062
                0x10020544       0x16 ./src/ethercat/beckhoff/Src/cia402appl.o
                0x10020544                aName0x6062
 *fill*         0x1002055a        0x2 
 .rodata.sEntryDesc0x6062
                0x1002055c        0x6 ./src/ethercat/beckhoff/Src/cia402appl.o
                0x1002055c                sEntryDesc0x6062
 *fill*         0x10020562        0x2 
 .rodata.aName0x6061
                0x10020564       0x1b ./src/ethercat/beckhoff/Src/cia402appl.o
                0x10020564                aName0x6061
 *fill*         0x1002057f        0x1 
 .rodata.sEntryDesc0x6061
                0x10020580        0x6 ./src/ethercat/beckhoff/Src/cia402appl.o
                0x10020580                sEntryDesc0x6061
 *fill*         0x10020586        0x2 
 .rodata.aName0x6060
                0x10020588       0x13 ./src/ethercat/beckhoff/Src/cia402appl.o
                0x10020588                aName0x6060
 *fill*         0x1002059b        0x1 
 .rodata.sEntryDesc0x6060
                0x1002059c        0x6 ./src/ethercat/beckhoff/Src/cia402appl.o
                0x1002059c                sEntryDesc0x6060
 *fill*         0x100205a2        0x2 
 .rodata.aName0x605E
                0x100205a4       0x1b ./src/ethercat/beckhoff/Src/cia402appl.o
                0x100205a4                aName0x605E
 *fill*         0x100205bf        0x1 
 .rodata.sEntryDesc0x605E
                0x100205c0        0x6 ./src/ethercat/beckhoff/Src/cia402appl.o
                0x100205c0                sEntryDesc0x605E
 *fill*         0x100205c6        0x2 
 .rodata.aName0x605D
                0x100205c8       0x11 ./src/ethercat/beckhoff/Src/cia402appl.o
                0x100205c8                aName0x605D
 *fill*         0x100205d9        0x3 
 .rodata.sEntryDesc0x605D
                0x100205dc        0x6 ./src/ethercat/beckhoff/Src/cia402appl.o
                0x100205dc                sEntryDesc0x605D
 *fill*         0x100205e2        0x2 
 .rodata.aName0x605C
                0x100205e4       0x1e ./src/ethercat/beckhoff/Src/cia402appl.o
                0x100205e4                aName0x605C
 *fill*         0x10020602        0x2 
 .rodata.sEntryDesc0x605C
                0x10020604        0x6 ./src/ethercat/beckhoff/Src/cia402appl.o
                0x10020604                sEntryDesc0x605C
 *fill*         0x1002060a        0x2 
 .rodata.aName0x605B
                0x1002060c       0x15 ./src/ethercat/beckhoff/Src/cia402appl.o
                0x1002060c                aName0x605B
 *fill*         0x10020621        0x3 
 .rodata.sEntryDesc0x605B
                0x10020624        0x6 ./src/ethercat/beckhoff/Src/cia402appl.o
                0x10020624                sEntryDesc0x605B
 *fill*         0x1002062a        0x2 
 .rodata.aName0x605A
                0x1002062c       0x17 ./src/ethercat/beckhoff/Src/cia402appl.o
                0x1002062c                aName0x605A
 *fill*         0x10020643        0x1 
 .rodata.sEntryDesc0x605A
                0x10020644        0x6 ./src/ethercat/beckhoff/Src/cia402appl.o
                0x10020644                sEntryDesc0x605A
 *fill*         0x1002064a        0x2 
 .rodata.aName0x6041
                0x1002064c        0xc ./src/ethercat/beckhoff/Src/cia402appl.o
                0x1002064c                aName0x6041
 .rodata.sEntryDesc0x6041
                0x10020658        0x6 ./src/ethercat/beckhoff/Src/cia402appl.o
                0x10020658                sEntryDesc0x6041
 *fill*         0x1002065e        0x2 
 .rodata.aName0x6040
                0x10020660        0xd ./src/ethercat/beckhoff/Src/cia402appl.o
                0x10020660                aName0x6040
 *fill*         0x1002066d        0x3 
 .rodata.sEntryDesc0x6040
                0x10020670        0x6 ./src/ethercat/beckhoff/Src/cia402appl.o
                0x10020670                sEntryDesc0x6040
 *fill*         0x10020676        0x2 
 .rodata.aName0x603F
                0x10020678        0xb ./src/ethercat/beckhoff/Src/cia402appl.o
                0x10020678                aName0x603F
 *fill*         0x10020683        0x1 
 .rodata.sEntryDesc0x603F
                0x10020684        0x6 ./src/ethercat/beckhoff/Src/cia402appl.o
                0x10020684                sEntryDesc0x603F
 *fill*         0x1002068a        0x2 
 .rodata.aName0x1A02
                0x1002068c       0x14 ./src/ethercat/beckhoff/Src/cia402appl.o
                0x1002068c                aName0x1A02
 .rodata.asEntryDesc0x1A02
                0x100206a0       0x3c ./src/ethercat/beckhoff/Src/cia402appl.o
                0x100206a0                asEntryDesc0x1A02
 .rodata.aName0x1A01
                0x100206dc       0x14 ./src/ethercat/beckhoff/Src/cia402appl.o
                0x100206dc                aName0x1A01
 .rodata.asEntryDesc0x1A01
                0x100206f0       0x42 ./src/ethercat/beckhoff/Src/cia402appl.o
                0x100206f0                asEntryDesc0x1A01
 *fill*         0x10020732        0x2 
 .rodata.aName0x1A00
                0x10020734       0x18 ./src/ethercat/beckhoff/Src/cia402appl.o
                0x10020734                aName0x1A00
 .rodata.asEntryDesc0x1A00
                0x1002074c       0x24 ./src/ethercat/beckhoff/Src/cia402appl.o
                0x1002074c                asEntryDesc0x1A00
 .rodata.aName0x1602
                0x10020770       0x14 ./src/ethercat/beckhoff/Src/cia402appl.o
                0x10020770                aName0x1602
 .rodata.asEntryDesc0x1602
                0x10020784       0x3c ./src/ethercat/beckhoff/Src/cia402appl.o
                0x10020784                asEntryDesc0x1602
 .rodata.aName0x1601
                0x100207c0       0x14 ./src/ethercat/beckhoff/Src/cia402appl.o
                0x100207c0                aName0x1601
 .rodata.asEntryDesc0x1601
                0x100207d4       0x42 ./src/ethercat/beckhoff/Src/cia402appl.o
                0x100207d4                asEntryDesc0x1601
 *fill*         0x10020816        0x2 
 .rodata.aName0x1600
                0x10020818       0x18 ./src/ethercat/beckhoff/Src/cia402appl.o
                0x10020818                aName0x1600
 .rodata.asEntryDesc0x1600
                0x10020830       0x24 ./src/ethercat/beckhoff/Src/cia402appl.o
                0x10020830                asEntryDesc0x1600
 .rodata.aName0x1C13
                0x10020854        0xd ./src/ethercat/beckhoff/Src/cia402appl.o
                0x10020854                aName0x1C13
 *fill*         0x10020861        0x3 
 .rodata.aName0x1C12
                0x10020864        0xd ./src/ethercat/beckhoff/Src/cia402appl.o
                0x10020864                aName0x1C12
 *fill*         0x10020871        0x3 
 .rodata.asPDOAssignEntryDesc
                0x10020874        0xc ./src/ethercat/beckhoff/Src/cia402appl.o
                0x10020874                asPDOAssignEntryDesc
 .rodata.aName0x1C33
                0x10020880      0x107 ./src/ethercat/beckhoff/Src/coeappl.o
                0x10020880                aName0x1C33
 *fill*         0x10020987        0x1 
 .rodata.aName0x1C32
                0x10020988      0x108 ./src/ethercat/beckhoff/Src/coeappl.o
                0x10020988                aName0x1C32
 .rodata.asEntryDesc0x1C3x
                0x10020a90       0xc6 ./src/ethercat/beckhoff/Src/coeappl.o
                0x10020a90                asEntryDesc0x1C3x
 *fill*         0x10020b56        0x2 
 .rodata.aName0x1C00
                0x10020b58       0x20 ./src/ethercat/beckhoff/Src/coeappl.o
                0x10020b58                aName0x1C00
 .rodata.asEntryDesc0x1C00
                0x10020b78        0xc ./src/ethercat/beckhoff/Src/coeappl.o
                0x10020b78                asEntryDesc0x1C00
 .rodata.aName0x10F8
                0x10020b84       0x13 ./src/ethercat/beckhoff/Src/coeappl.o
                0x10020b84                aName0x10F8
 *fill*         0x10020b97        0x1 
 .rodata.sEntryDesc0x10F8
                0x10020b98        0x6 ./src/ethercat/beckhoff/Src/coeappl.o
                0x10020b98                sEntryDesc0x10F8
 *fill*         0x10020b9e        0x2 
 .rodata.aName0x10F1
                0x10020ba0       0x3f ./src/ethercat/beckhoff/Src/coeappl.o
                0x10020ba0                aName0x10F1
 *fill*         0x10020bdf        0x1 
 .rodata.asEntryDesc0x10F1
                0x10020be0       0x12 ./src/ethercat/beckhoff/Src/coeappl.o
                0x10020be0                asEntryDesc0x10F1
 *fill*         0x10020bf2        0x2 
 .rodata.aName0x1018
                0x10020bf4       0x47 ./src/ethercat/beckhoff/Src/coeappl.o
                0x10020bf4                aName0x1018
 *fill*         0x10020c3b        0x1 
 .rodata.asEntryDesc0x1018
                0x10020c3c       0x1e ./src/ethercat/beckhoff/Src/coeappl.o
                0x10020c3c                asEntryDesc0x1018
 *fill*         0x10020c5a        0x2 
 .rodata.aName0x100A
                0x10020c5c       0x1e ./src/ethercat/beckhoff/Src/coeappl.o
                0x10020c5c                aName0x100A
 *fill*         0x10020c7a        0x2 
 .rodata.sEntryDesc0x100A
                0x10020c7c        0x6 ./src/ethercat/beckhoff/Src/coeappl.o
                0x10020c7c                sEntryDesc0x100A
 *fill*         0x10020c82        0x2 
 .rodata.aName0x1009
                0x10020c84       0x1e ./src/ethercat/beckhoff/Src/coeappl.o
                0x10020c84                aName0x1009
 *fill*         0x10020ca2        0x2 
 .rodata.sEntryDesc0x1009
                0x10020ca4        0x6 ./src/ethercat/beckhoff/Src/coeappl.o
                0x10020ca4                sEntryDesc0x1009
 *fill*         0x10020caa        0x2 
 .rodata.aName0x1008
                0x10020cac       0x18 ./src/ethercat/beckhoff/Src/coeappl.o
                0x10020cac                aName0x1008
 .rodata.sEntryDesc0x1008
                0x10020cc4        0x6 ./src/ethercat/beckhoff/Src/coeappl.o
                0x10020cc4                sEntryDesc0x1008
 *fill*         0x10020cca        0x2 
 .rodata.aName0x1001
                0x10020ccc        0xf ./src/ethercat/beckhoff/Src/coeappl.o
                0x10020ccc                aName0x1001
 *fill*         0x10020cdb        0x1 
 .rodata.sEntryDesc0x1001
                0x10020cdc        0x6 ./src/ethercat/beckhoff/Src/coeappl.o
                0x10020cdc                sEntryDesc0x1001
 *fill*         0x10020ce2        0x2 
 .rodata.aName0x1000
                0x10020ce4        0xc ./src/ethercat/beckhoff/Src/coeappl.o
                0x10020ce4                aName0x1000
 .rodata.sEntryDesc0x1000
                0x10020cf0        0x6 ./src/ethercat/beckhoff/Src/coeappl.o
                0x10020cf0                sEntryDesc0x1000
 *fill*         0x10020cf6        0x2 
 .rodata.aName0x5000
                0x10020cf8       0x17 ./src/ethercat/beckhoff/Src/coeappl.o
                0x10020cf8                aName0x5000
 *fill*         0x10020d0f        0x1 
 .rodata.EntryDesc0x5000
                0x10020d10        0x6 ./src/ethercat/beckhoff/Src/coeappl.o
                0x10020d10                EntryDesc0x5000
 *fill*         0x10020d16        0x2 
 .rodata.cBitMask
                0x10020d18       0x20 ./src/ethercat/beckhoff/Src/objdef.o
                0x10020d18                cBitMask
 .rodata.cAbortCode
                0x10020d38       0x78 ./src/ethercat/beckhoff/Src/sdoserv.o
                0x10020d38                cAbortCode
 .rodata.BankDetection_Init.str1.4
                0x10020db0       0x9f ./src/common/bank_detection.o
 *fill*         0x10020e4f        0x1 
 .rodata.BankDetection_IsTargetBankValid.str1.4
                0x10020e50       0x3f ./src/common/bank_detection.o
 *fill*         0x10020e8f        0x1 
 .rodata.crc32_standard_table
                0x10020e90      0x400 ./src/common/crc32_table.o
 .rodata.SblBootParams_Init.str1.4
                0x10021290       0xcd ./src/common/sbl_boot_params.o
 *fill*         0x1002135d        0x3 
 .rodata.SblBootParams_GetCurrentBank.str1.4
                0x10021360       0x2a ./src/common/sbl_boot_params.o
 *fill*         0x1002138a        0x2 
 .rodata.SblBootParams_CheckVersionUpgrade.str1.4
                0x1002138c       0xa8 ./src/common/sbl_boot_params.o
 .rodata.hal_entry.str1.4
                0x10021434      0x12e ./src/hal_entry.o
                                0x13a (size before relaxing)
 *fill*         0x10021562        0x2 
 .rodata.__FUNCTION__.0
                0x10021564        0xa ./src/hal_entry.o
 *fill*         0x1002156e        0x2 
 .rodata.g_ioport
                0x10021570        0xc ./rzn_gen/common_data.o
                0x10021570                g_ioport
 .rodata.g_ioport_cfg_extend
                0x1002157c       0x26 ./rzn_gen/common_data.o
                0x1002157c                g_ioport_cfg_extend
 *fill*         0x100215a2        0x2 
 .rodata.g_ethercat_ssc_port0
                0x100215a4        0xc ./rzn_gen/common_data.o
                0x100215a4                g_ethercat_ssc_port0
 .rodata.g_ethercat_ssc_port0_cfg
                0x100215b0       0x28 ./rzn_gen/common_data.o
                0x100215b0                g_ethercat_ssc_port0_cfg
 .rodata.g_ethercat_ssc_port0_ext_cfg
                0x100215d8       0x10 ./rzn_gen/common_data.o
                0x100215d8                g_ethercat_ssc_port0_ext_cfg
 .rodata.g_ether_phy0
                0x100215e8        0xc ./rzn_gen/common_data.o
                0x100215e8                g_ether_phy0
 .rodata.g_ether_phy0_cfg
                0x100215f4       0x18 ./rzn_gen/common_data.o
                0x100215f4                g_ether_phy0_cfg
 .rodata.g_ether_phy0_extend
                0x1002160c       0x14 ./rzn_gen/common_data.o
                0x1002160c                g_ether_phy0_extend
 .rodata.g_ether_selector0
                0x10021620        0xc ./rzn_gen/common_data.o
                0x10021620                g_ether_selector0
 .rodata.g_ether_selector0_cfg
                0x1002162c        0xc ./rzn_gen/common_data.o
                0x1002162c                g_ether_selector0_cfg
 .rodata.g_ether_phy1
                0x10021638        0xc ./rzn_gen/common_data.o
                0x10021638                g_ether_phy1
 .rodata.g_ether_phy1_cfg
                0x10021644       0x18 ./rzn_gen/common_data.o
                0x10021644                g_ether_phy1_cfg
 .rodata.g_ether_phy1_extend
                0x1002165c       0x14 ./rzn_gen/common_data.o
                0x1002165c                g_ether_phy1_extend
 .rodata.g_ether_selector1
                0x10021670        0xc ./rzn_gen/common_data.o
                0x10021670                g_ether_selector1
 .rodata.g_ether_selector1_cfg
                0x1002167c        0xc ./rzn_gen/common_data.o
                0x1002167c                g_ether_selector1_cfg
 .rodata.g_timer0
                0x10021688        0xc ./rzn_gen/common_data.o
                0x10021688                g_timer0
 .rodata.g_timer0_cfg
                0x10021694       0x20 ./rzn_gen/common_data.o
                0x10021694                g_timer0_cfg
 .rodata.g_uart0
                0x100216b4        0xc ./rzn_gen/hal_data.o
                0x100216b4                g_uart0
 .rodata.g_uart0_cfg
                0x100216c0       0x28 ./rzn_gen/hal_data.o
                0x100216c0                g_uart0_cfg
 .rodata.g_uart0_cfg_extend
                0x100216e8       0x14 ./rzn_gen/hal_data.o
                0x100216e8                g_uart0_cfg_extend
 .rodata.g_qspi0_cfg
                0x100216fc       0x1c ./rzn_gen/hal_data.o
                0x100216fc                g_qspi0_cfg
 .rodata.g_qspi0_extended_cfg
                0x10021718        0xc ./rzn_gen/hal_data.o
 .rodata.g_qspi0_erase_command_list
                0x10021724       0x20 ./rzn_gen/hal_data.o
 .rodata.g_bsp_pin_cfg
                0x10021744        0xc ./rzn_gen/pin_data.o
                0x10021744                g_bsp_pin_cfg
 .rodata.g_bsp_pin_cfg_data
                0x10021750      0x310 ./rzn_gen/pin_data.o
                0x10021750                g_bsp_pin_cfg_data
 .rodata.g_vector_table
                0x10021a60      0x700 ./rzn_gen/vector_data.o
                0x10021a60                g_vector_table
 .rodata.g_ethercat_ssc_port_on_ethercat_ssc_port
                0x10022160        0x8 ./rzn/fsp/src/rm_ethercat_ssc_port/rm_ethercat_ssc_port.o
                0x10022160                g_ethercat_ssc_port_on_ethercat_ssc_port
 .rodata        0x10022168        0x3 ./rzn/fsp/src/rm_ethercat_ssc_port/rm_ethercat_ssc_port.o
 *fill*         0x1002216b        0x1 
 .rodata.g_uart_on_sci
                0x1002216c       0x24 ./rzn/fsp/src/r_sci_uart/r_sci_uart.o
                0x1002216c                g_uart_on_sci
 .rodata.g_ioport_on_ioport
                0x10022190       0x34 ./rzn/fsp/src/r_ioport/r_ioport.o
                0x10022190                g_ioport_on_ioport
 .rodata.g_ether_selector_on_ether_selector
                0x100221c4        0xc ./rzn/fsp/src/r_ether_selector/r_ether_selector.o
                0x100221c4                g_ether_selector_on_ether_selector
 .rodata.g_ether_phy_on_ether_phy
                0x100221d0       0x20 ./rzn/fsp/src/r_ether_phy/r_ether_phy.o
                0x100221d0                g_ether_phy_on_ether_phy
 .rodata.g_timer_on_cmt
                0x100221f0       0x30 ./rzn/fsp/src/r_cmt/r_cmt.o
                0x100221f0                g_timer_on_cmt
 .rodata.BSP_GICD_ICFGR_INIT
                0x10022220       0x70 ./rzn/fsp/src/bsp/mcu/rzn2l/bsp_irq_sense.o
                0x10022220                BSP_GICD_ICFGR_INIT
 .rodata.g_bsp_system_clock_select
                0x10022290       0x98 ./rzn/fsp/src/bsp/mcu/all/bsp_common.o
                0x10022290                g_bsp_system_clock_select
 .rodata.g_prcr_masks
                0x10022328        0x8 ./rzn/fsp/src/bsp/mcu/all/bsp_register_protection.o
 .rodata.g_bsp_el1_mpu
                0x10022330       0xc0 ./rzn/fsp/src/bsp/cmsis/Device/RENESAS/Source/cr/system_core.o
 .rodata.g_bsp_master_mpu8_cfg
                0x100223f0       0x40 ./rzn/fsp/src/bsp/cmsis/Device/RENESAS/Source/system.o
                0x100223f0                g_bsp_master_mpu8_cfg
 .rodata.g_bsp_master_mpu7_cfg
                0x10022430       0x40 ./rzn/fsp/src/bsp/cmsis/Device/RENESAS/Source/system.o
                0x10022430                g_bsp_master_mpu7_cfg
 .rodata.g_bsp_master_mpu6_cfg
                0x10022470       0x40 ./rzn/fsp/src/bsp/cmsis/Device/RENESAS/Source/system.o
                0x10022470                g_bsp_master_mpu6_cfg
 .rodata.g_bsp_master_mpu4_cfg
                0x100224b0       0x40 ./rzn/fsp/src/bsp/cmsis/Device/RENESAS/Source/system.o
                0x100224b0                g_bsp_master_mpu4_cfg
 .rodata.g_bsp_master_mpu3_cfg
                0x100224f0       0x40 ./rzn/fsp/src/bsp/cmsis/Device/RENESAS/Source/system.o
                0x100224f0                g_bsp_master_mpu3_cfg
 .rodata.g_bsp_master_mpu2_cfg
                0x10022530       0x40 ./rzn/fsp/src/bsp/cmsis/Device/RENESAS/Source/system.o
                0x10022530                g_bsp_master_mpu2_cfg
 .rodata.g_bsp_master_mpu1_cfg
                0x10022570       0x40 ./rzn/fsp/src/bsp/cmsis/Device/RENESAS/Source/system.o
                0x10022570                g_bsp_master_mpu1_cfg
 .rodata.g_bsp_master_mpu0_cfg
                0x100225b0       0x40 ./rzn/fsp/src/bsp/cmsis/Device/RENESAS/Source/system.o
                0x100225b0                g_bsp_master_mpu0_cfg
 .rodata._printf_float.str1.1
                0x100225f0       0x12 d:/program files/gcc/arm gnu toolchain arm-none-eabi/12.2 rel1/bin/../lib/gcc/arm-none-eabi/12.2.1/thumb/v7+fp/hard\libg_nano.a(libc_a-nano-vfprintf_float.o)
 .rodata._printf_i.str1.1
                0x10022602       0x22 d:/program files/gcc/arm gnu toolchain arm-none-eabi/12.2 rel1/bin/../lib/gcc/arm-none-eabi/12.2.1/thumb/v7+fp/hard\libg_nano.a(libc_a-nano-vfprintf_i.o)
 .rodata._dtoa_r.str1.1
                0x10022624       0x8e d:/program files/gcc/arm gnu toolchain arm-none-eabi/12.2 rel1/bin/../lib/gcc/arm-none-eabi/12.2.1/thumb/v7+fp/hard\libg_nano.a(libc_a-dtoa.o)
                                 0x90 (size before relaxing)
 .rodata._Balloc.str1.1
                0x100226b2       0x5a d:/program files/gcc/arm gnu toolchain arm-none-eabi/12.2 rel1/bin/../lib/gcc/arm-none-eabi/12.2.1/thumb/v7+fp/hard\libg_nano.a(libc_a-mprec.o)
                                 0x71 (size before relaxing)
 .rodata.__multadd.str1.1
                0x1002270c       0x11 d:/program files/gcc/arm gnu toolchain arm-none-eabi/12.2 rel1/bin/../lib/gcc/arm-none-eabi/12.2.1/thumb/v7+fp/hard\libg_nano.a(libc_a-mprec.o)
 .rodata.p05.0  0x1002270c        0xc d:/program files/gcc/arm gnu toolchain arm-none-eabi/12.2 rel1/bin/../lib/gcc/arm-none-eabi/12.2.1/thumb/v7+fp/hard\libg_nano.a(libc_a-mprec.o)
 .rodata.__mprec_bigtens
                0x10022718       0x28 d:/program files/gcc/arm gnu toolchain arm-none-eabi/12.2 rel1/bin/../lib/gcc/arm-none-eabi/12.2.1/thumb/v7+fp/hard\libg_nano.a(libc_a-mprec.o)
                0x10022718                __mprec_bigtens
 .rodata.__mprec_tens
                0x10022740       0xc8 d:/program files/gcc/arm gnu toolchain arm-none-eabi/12.2 rel1/bin/../lib/gcc/arm-none-eabi/12.2.1/thumb/v7+fp/hard\libg_nano.a(libc_a-mprec.o)
                0x10022740                __mprec_tens
 .rodata._vfprintf_r.str1.1
                0x10022808       0x11 d:/program files/gcc/arm gnu toolchain arm-none-eabi/12.2 rel1/bin/../lib/gcc/arm-none-eabi/12.2.1/thumb/v7+fp/hard\libg_nano.a(libc_a-nano-vfprintf.o)
 .rodata._setlocale_r.str1.1
                0x10022819        0x8 d:/program files/gcc/arm gnu toolchain arm-none-eabi/12.2 rel1/bin/../lib/gcc/arm-none-eabi/12.2.1/thumb/v7+fp/hard\libg_nano.a(libc_a-locale.o)
                                  0x9 (size before relaxing)
 .rodata.str1.1
                0x10022821        0x2 d:/program files/gcc/arm gnu toolchain arm-none-eabi/12.2 rel1/bin/../lib/gcc/arm-none-eabi/12.2.1/thumb/v7+fp/hard\libg_nano.a(libc_a-locale.o)
 .rodata.__assert_func.str1.1
                0x10022823       0x3c d:/program files/gcc/arm gnu toolchain arm-none-eabi/12.2 rel1/bin/../lib/gcc/arm-none-eabi/12.2.1/thumb/v7+fp/hard\libg_nano.a(libc_a-assert.o)
                                 0x3d (size before relaxing)
 .rodata._ctype_
                0x1002285f      0x101 d:/program files/gcc/arm gnu toolchain arm-none-eabi/12.2 rel1/bin/../lib/gcc/arm-none-eabi/12.2.1/thumb/v7+fp/hard\libg_nano.a(libc_a-ctype_.o)
                0x1002285f                _ctype_
                0x10022960                _erodata = .
                0x10022960                . = ALIGN (0x4)
                0x10022960                PROVIDE (__preinit_array_start = .)
 *(.preinit_array)
                0x10022960                PROVIDE (__preinit_array_end = .)
                0x10022960                . = ALIGN (0x4)
                0x10022960                PROVIDE (__init_array_start = .)
 *(SORT_BY_NAME(.init_array.*))
 *(.init_array)
                0x10022960                PROVIDE (__init_array_end = .)
                0x10022960                . = ALIGN (0x4)
                [!provide]                PROVIDE (__fini_array_start = .)
 *(SORT_BY_NAME(.fini_array.*))
 *(.fini_array)
                [!provide]                PROVIDE (__fini_array_end = .)
 *(.jcr*)
                0x10022960                . = ALIGN (0x4)
                0x10022960                _data_end = .

.igot.plt       0x10022960        0x0 load address 0x601129bc
 .igot.plt      0x10022960        0x0 ./src/ethercat/renesas/sampleappl.o

.bss            0x10022960     0x1d60 load address 0x601129c0
                0x10022960                . = ALIGN (0x4)
                0x10022960                __bss_start__ = .
                0x10022960                _bss = .
 *(.bss*)
 .bss.LocalTAxis
                0x10022960       0x20 ./src/ethercat/renesas/samplecia402.o
                0x10022960                LocalTAxis
 .bss.buf       0x10022980       0x28 ./src/ethercat/renesas/samplefoe.o
 .bss.u32FileSize
                0x100229a8        0x4 ./src/ethercat/renesas/samplefoe.o
                0x100229a8                u32FileSize
 .bss.aFileData
                0x100229ac      0x180 ./src/ethercat/renesas/samplefoe.o
                0x100229ac                aFileData
 .bss.aFileName
                0x10022b2c       0x20 ./src/ethercat/renesas/samplefoe.o
                0x10022b2c                aFileName
 .bss.nFileWriteOffset
                0x10022b4c        0x4 ./src/ethercat/renesas/samplefoe.o
                0x10022b4c                nFileWriteOffset
 .bss.bReBoot   0x10022b50        0x1 ./src/ethercat/beckhoff/Src/bootmode.o
 *fill*         0x10022b51        0x3 
 .bss.ctx       0x10022b54      0x408 ./src/ethercat/beckhoff/Src/bootmode.o
                0x10022b54                ctx
 *fill*         0x10022f5c        0x4 
 .bss.endTime   0x10022f60        0x8 ./src/ethercat/beckhoff/Src/bootmode.o
 .bss.beginTime
                0x10022f68        0x8 ./src/ethercat/beckhoff/Src/bootmode.o
 .bss.ota_handle
                0x10022f70      0x16e ./src/ethercat/beckhoff/Src/bootmode.o
 *fill*         0x100230de        0x2 
 .bss.LocalAxes
                0x100230e0      0x360 ./src/ethercat/beckhoff/Src/cia402appl.o
                0x100230e0                LocalAxes
 .bss.ObjDicList
                0x10023440        0x4 ./src/ethercat/beckhoff/Src/coeappl.o
                0x10023440                ObjDicList
 .bss.u16ErrorRegister
                0x10023444        0x2 ./src/ethercat/beckhoff/Src/coeappl.o
                0x10023444                u16ErrorRegister
 *fill*         0x10023446        0x2 
 .bss.u32CheckForDcOverrunCnt
                0x10023448        0x4 ./src/ethercat/beckhoff/Src/coeappl.o
                0x10023448                u32CheckForDcOverrunCnt
 .bss.u32LastDc32Value
                0x1002344c        0x4 ./src/ethercat/beckhoff/Src/coeappl.o
                0x1002344c                u32LastDc32Value
 .bss.u64Timestamp
                0x10023450        0x8 ./src/ethercat/beckhoff/Src/coeappl.o
                0x10023450                u64Timestamp
 .bss.ErrorCounter.0
                0x10023458        0x2 ./src/ethercat/beckhoff/Src/ecatappl.o
 .bss.u8PrevErrorLed.1
                0x1002345a        0x1 ./src/ethercat/beckhoff/Src/ecatappl.o
 *fill*         0x1002345b        0x1 
 .bss.RunCounter.2
                0x1002345c        0x2 ./src/ethercat/beckhoff/Src/ecatappl.o
 .bss.u8PrevRunLed.3
                0x1002345e        0x1 ./src/ethercat/beckhoff/Src/ecatappl.o
 *fill*         0x1002345f        0x1 
 .bss.ms.4      0x10023460        0x2 ./src/ethercat/beckhoff/Src/ecatappl.o
 .bss.bInitFinished
                0x10023462        0x1 ./src/ethercat/beckhoff/Src/ecatappl.o
                0x10023462                bInitFinished
 *fill*         0x10023463        0x1 
 .bss.aPdInputData
                0x10023464      0x100 ./src/ethercat/beckhoff/Src/ecatappl.o
                0x10023464                aPdInputData
 .bss.aPdOutputData
                0x10023564      0x100 ./src/ethercat/beckhoff/Src/ecatappl.o
                0x10023564                aPdOutputData
 .bss.u32MinCycleTimeValue
                0x10023664        0x4 ./src/ethercat/beckhoff/Src/ecatappl.o
                0x10023664                u32MinCycleTimeValue
 .bss.bMinCycleTimeMeasurementStarted
                0x10023668        0x1 ./src/ethercat/beckhoff/Src/ecatappl.o
                0x10023668                bMinCycleTimeMeasurementStarted
 *fill*         0x10023669        0x3 
 .bss.u32SystemTimeReadFailure
                0x1002366c        0x4 ./src/ethercat/beckhoff/Src/ecatappl.o
                0x1002366c                u32SystemTimeReadFailure
 .bss.u32MinCycleTimeStartValue
                0x10023670        0x4 ./src/ethercat/beckhoff/Src/ecatappl.o
                0x10023670                u32MinCycleTimeStartValue
 .bss.u32CycleTimeStartValue
                0x10023674        0x4 ./src/ethercat/beckhoff/Src/ecatappl.o
                0x10023674                u32CycleTimeStartValue
 .bss.pAPPL_MainLoop
                0x10023678        0x4 ./src/ethercat/beckhoff/Src/ecatappl.o
                0x10023678                pAPPL_MainLoop
 .bss.pAPPL_CoeWriteInd
                0x1002367c        0x4 ./src/ethercat/beckhoff/Src/ecatappl.o
                0x1002367c                pAPPL_CoeWriteInd
 .bss.pAPPL_CoeReadInd
                0x10023680        0x4 ./src/ethercat/beckhoff/Src/ecatappl.o
                0x10023680                pAPPL_CoeReadInd
 .bss.pAPPL_FoeWriteData
                0x10023684        0x4 ./src/ethercat/beckhoff/Src/ecatappl.o
                0x10023684                pAPPL_FoeWriteData
 .bss.pAPPL_FoeWrite
                0x10023688        0x4 ./src/ethercat/beckhoff/Src/ecatappl.o
                0x10023688                pAPPL_FoeWrite
 .bss.pAPPL_FoeError
                0x1002368c        0x4 ./src/ethercat/beckhoff/Src/ecatappl.o
                0x1002368c                pAPPL_FoeError
 .bss.pAPPL_FoeReadData
                0x10023690        0x4 ./src/ethercat/beckhoff/Src/ecatappl.o
                0x10023690                pAPPL_FoeReadData
 .bss.pAPPL_FoeRead
                0x10023694        0x4 ./src/ethercat/beckhoff/Src/ecatappl.o
                0x10023694                pAPPL_FoeRead
 .bss.bRunApplication
                0x10023698        0x1 ./src/ethercat/beckhoff/Src/ecatappl.o
                0x10023698                bRunApplication
 .bss.bEtherCATErrorLed
                0x10023699        0x1 ./src/ethercat/beckhoff/Src/ecatappl.o
                0x10023699                bEtherCATErrorLed
 .bss.bEtherCATRunLed
                0x1002369a        0x1 ./src/ethercat/beckhoff/Src/ecatappl.o
                0x1002369a                bEtherCATRunLed
 *fill*         0x1002369b        0x1 
 .bss.pCoeSendStored
                0x1002369c        0x4 ./src/ethercat/beckhoff/Src/ecatcoe.o
                0x1002369c                pCoeSendStored
 .bss.u16FoeMaxSendBlockSize
                0x100236a0        0x2 ./src/ethercat/beckhoff/Src/ecatfoe.o
                0x100236a0                u16FoeMaxSendBlockSize
 *fill*         0x100236a2        0x2 
 .bss.pFoeSendStored
                0x100236a4        0x4 ./src/ethercat/beckhoff/Src/ecatfoe.o
                0x100236a4                pFoeSendStored
 .bss.u16FileAccessState
                0x100236a8        0x2 ./src/ethercat/beckhoff/Src/ecatfoe.o
                0x100236a8                u16FileAccessState
 *fill*         0x100236aa        0x2 
 .bss.u32LastFileOffset
                0x100236ac        0x4 ./src/ethercat/beckhoff/Src/ecatfoe.o
                0x100236ac                u32LastFileOffset
 .bss.u32FileOffset
                0x100236b0        0x4 ./src/ethercat/beckhoff/Src/ecatfoe.o
                0x100236b0                u32FileOffset
 .bss.u32PacketNo
                0x100236b4        0x4 ./src/ethercat/beckhoff/Src/ecatfoe.o
                0x100236b4                u32PacketNo
 .bss.EepromLoaded
                0x100236b8        0x1 ./src/ethercat/beckhoff/Src/ecatslv.o
                0x100236b8                EepromLoaded
 *fill*         0x100236b9        0x3 
 .bss.SyncManInfo
                0x100236bc        0x8 ./src/ethercat/beckhoff/Src/ecatslv.o
                0x100236bc                SyncManInfo
 .bss.SMActivate
                0x100236c4        0x1 ./src/ethercat/beckhoff/Src/ecatslv.o
                0x100236c4                SMActivate
 .bss.u8dummy   0x100236c5        0x1 ./src/ethercat/beckhoff/Src/ecatslv.o
                0x100236c5                u8dummy
 .bss.u16IdValue
                0x100236c6        0x2 ./src/ethercat/beckhoff/Src/ecatslv.o
                0x100236c6                u16IdValue
 .bss.u16ALEventMask
                0x100236c8        0x2 ./src/ethercat/beckhoff/Src/ecatslv.o
                0x100236c8                u16ALEventMask
 .bss.nEscAddrInputData
                0x100236ca        0x2 ./src/ethercat/beckhoff/Src/ecatslv.o
                0x100236ca                nEscAddrInputData
 .bss.nEscAddrOutputData
                0x100236cc        0x2 ./src/ethercat/beckhoff/Src/ecatslv.o
                0x100236cc                nEscAddrOutputData
 .bss.EcatWdValue
                0x100236ce        0x2 ./src/ethercat/beckhoff/Src/ecatslv.o
                0x100236ce                EcatWdValue
 .bss.bExplicitDevIdRequested
                0x100236d0        0x1 ./src/ethercat/beckhoff/Src/ecatslv.o
                0x100236d0                bExplicitDevIdRequested
 .bss.nAlStatus
                0x100236d1        0x1 ./src/ethercat/beckhoff/Src/ecatslv.o
                0x100236d1                nAlStatus
 .bss.nMaxEscAddress
                0x100236d2        0x2 ./src/ethercat/beckhoff/Src/ecatslv.o
                0x100236d2                nMaxEscAddress
 .bss.nMaxSyncMan
                0x100236d4        0x1 ./src/ethercat/beckhoff/Src/ecatslv.o
                0x100236d4                nMaxSyncMan
 *fill*         0x100236d5        0x1 
 .bss.nPdOutputSize
                0x100236d6        0x2 ./src/ethercat/beckhoff/Src/ecatslv.o
                0x100236d6                nPdOutputSize
 .bss.nPdInputSize
                0x100236d8        0x2 ./src/ethercat/beckhoff/Src/ecatslv.o
                0x100236d8                nPdInputSize
 .bss.u8EcatRunLed
                0x100236da        0x1 ./src/ethercat/beckhoff/Src/ecatslv.o
                0x100236da                u8EcatRunLed
 .bss.u8EcatErrorLed
                0x100236db        0x1 ./src/ethercat/beckhoff/Src/ecatslv.o
                0x100236db                u8EcatErrorLed
 .bss.nEcatStateTrans
                0x100236dc        0x2 ./src/ethercat/beckhoff/Src/ecatslv.o
                0x100236dc                nEcatStateTrans
 .bss.bEcatWaitForAlControlRes
                0x100236de        0x1 ./src/ethercat/beckhoff/Src/ecatslv.o
                0x100236de                bEcatWaitForAlControlRes
 .bss.bApplEsmPending
                0x100236df        0x1 ./src/ethercat/beckhoff/Src/ecatslv.o
                0x100236df                bApplEsmPending
 .bss.u8LocalErrorState
                0x100236e0        0x1 ./src/ethercat/beckhoff/Src/ecatslv.o
                0x100236e0                u8LocalErrorState
 *fill*         0x100236e1        0x1 
 .bss.u16LocalErrorCode
                0x100236e2        0x2 ./src/ethercat/beckhoff/Src/ecatslv.o
                0x100236e2                u16LocalErrorCode
 .bss.b3BufferMode
                0x100236e4        0x1 ./src/ethercat/beckhoff/Src/ecatslv.o
                0x100236e4                b3BufferMode
 .bss.bEscIntEnabled
                0x100236e5        0x1 ./src/ethercat/beckhoff/Src/ecatslv.o
                0x100236e5                bEscIntEnabled
 .bss.b32BitDc  0x100236e6        0x1 ./src/ethercat/beckhoff/Src/ecatslv.o
                0x100236e6                b32BitDc
 *fill*         0x100236e7        0x1 
 .bss.LatchInputSync0Counter
                0x100236e8        0x2 ./src/ethercat/beckhoff/Src/ecatslv.o
                0x100236e8                LatchInputSync0Counter
 .bss.LatchInputSync0Value
                0x100236ea        0x2 ./src/ethercat/beckhoff/Src/ecatslv.o
                0x100236ea                LatchInputSync0Value
 .bss.Sync1WdValue
                0x100236ec        0x2 ./src/ethercat/beckhoff/Src/ecatslv.o
                0x100236ec                Sync1WdValue
 .bss.Sync1WdCounter
                0x100236ee        0x2 ./src/ethercat/beckhoff/Src/ecatslv.o
                0x100236ee                Sync1WdCounter
 .bss.Sync0WdValue
                0x100236f0        0x2 ./src/ethercat/beckhoff/Src/ecatslv.o
                0x100236f0                Sync0WdValue
 .bss.Sync0WdCounter
                0x100236f2        0x2 ./src/ethercat/beckhoff/Src/ecatslv.o
                0x100236f2                Sync0WdCounter
 .bss.i16WaitForPllRunningCnt
                0x100236f4        0x2 ./src/ethercat/beckhoff/Src/ecatslv.o
                0x100236f4                i16WaitForPllRunningCnt
 .bss.i16WaitForPllRunningTimeout
                0x100236f6        0x2 ./src/ethercat/beckhoff/Src/ecatslv.o
                0x100236f6                i16WaitForPllRunningTimeout
 .bss.bSmSyncSequenceValid
                0x100236f8        0x1 ./src/ethercat/beckhoff/Src/ecatslv.o
                0x100236f8                bSmSyncSequenceValid
 *fill*         0x100236f9        0x1 
 .bss.u16SmSync0Value
                0x100236fa        0x2 ./src/ethercat/beckhoff/Src/ecatslv.o
                0x100236fa                u16SmSync0Value
 .bss.u16SmSync0Counter
                0x100236fc        0x2 ./src/ethercat/beckhoff/Src/ecatslv.o
                0x100236fc                u16SmSync0Counter
 .bss.bDcRunning
                0x100236fe        0x1 ./src/ethercat/beckhoff/Src/ecatslv.o
                0x100236fe                bDcRunning
 *fill*         0x100236ff        0x1 
 .bss.EsmTimeoutCounter
                0x10023700        0x2 ./src/ethercat/beckhoff/Src/ecatslv.o
                0x10023700                EsmTimeoutCounter
 .bss.bDcSyncActive
                0x10023702        0x1 ./src/ethercat/beckhoff/Src/ecatslv.o
                0x10023702                bDcSyncActive
 .bss.bWdTrigger
                0x10023703        0x1 ./src/ethercat/beckhoff/Src/ecatslv.o
                0x10023703                bWdTrigger
 .bss.bEcatFirstOutputsReceived
                0x10023704        0x1 ./src/ethercat/beckhoff/Src/ecatslv.o
                0x10023704                bEcatFirstOutputsReceived
 .bss.bEcatInputUpdateRunning
                0x10023705        0x1 ./src/ethercat/beckhoff/Src/ecatslv.o
                0x10023705                bEcatInputUpdateRunning
 .bss.bEcatOutputUpdateRunning
                0x10023706        0x1 ./src/ethercat/beckhoff/Src/ecatslv.o
                0x10023706                bEcatOutputUpdateRunning
 .bss.bBootMode
                0x10023707        0x1 ./src/ethercat/beckhoff/Src/ecatslv.o
                0x10023707                bBootMode
 .bss.bNoMbxMemoryAvailable
                0x10023708        0x1 ./src/ethercat/beckhoff/Src/mailbox.o
                0x10023708                bNoMbxMemoryAvailable
 *fill*         0x10023709        0x3 
 .bss.sMbxReceiveQueue
                0x1002370c       0x34 ./src/ethercat/beckhoff/Src/mailbox.o
                0x1002370c                sMbxReceiveQueue
 .bss.sMbxSendQueue
                0x10023740       0x34 ./src/ethercat/beckhoff/Src/mailbox.o
                0x10023740                sMbxSendQueue
 .bss.psStoreMbx
                0x10023774        0x4 ./src/ethercat/beckhoff/Src/mailbox.o
                0x10023774                psStoreMbx
 .bss.psRepeatMbx
                0x10023778        0x4 ./src/ethercat/beckhoff/Src/mailbox.o
                0x10023778                psRepeatMbx
 .bss.psReadMbx
                0x1002377c        0x4 ./src/ethercat/beckhoff/Src/mailbox.o
                0x1002377c                psReadMbx
 .bss.psWriteMbx
                0x10023780        0x4 ./src/ethercat/beckhoff/Src/mailbox.o
                0x10023780                psWriteMbx
 .bss.u8MailboxSendReqStored
                0x10023784        0x1 ./src/ethercat/beckhoff/Src/mailbox.o
                0x10023784                u8MailboxSendReqStored
 .bss.u8MbxReadCounter
                0x10023785        0x1 ./src/ethercat/beckhoff/Src/mailbox.o
                0x10023785                u8MbxReadCounter
 .bss.u8MbxWriteCounter
                0x10023786        0x1 ./src/ethercat/beckhoff/Src/mailbox.o
                0x10023786                u8MbxWriteCounter
 *fill*         0x10023787        0x1 
 .bss.u16EscAddrSendMbx
                0x10023788        0x2 ./src/ethercat/beckhoff/Src/mailbox.o
                0x10023788                u16EscAddrSendMbx
 .bss.u16EscAddrReceiveMbx
                0x1002378a        0x2 ./src/ethercat/beckhoff/Src/mailbox.o
                0x1002378a                u16EscAddrReceiveMbx
 .bss.u16ReceiveMbxSize
                0x1002378c        0x2 ./src/ethercat/beckhoff/Src/mailbox.o
                0x1002378c                u16ReceiveMbxSize
 .bss.u16SendMbxSize
                0x1002378e        0x2 ./src/ethercat/beckhoff/Src/mailbox.o
                0x1002378e                u16SendMbxSize
 .bss.bMbxRepeatToggle
                0x10023790        0x1 ./src/ethercat/beckhoff/Src/mailbox.o
                0x10023790                bMbxRepeatToggle
 .bss.bMbxRunning
                0x10023791        0x1 ./src/ethercat/beckhoff/Src/mailbox.o
                0x10023791                bMbxRunning
 .bss.bSendMbxIsFull
                0x10023792        0x1 ./src/ethercat/beckhoff/Src/mailbox.o
                0x10023792                bSendMbxIsFull
 .bss.bReceiveMbxIsLocked
                0x10023793        0x1 ./src/ethercat/beckhoff/Src/mailbox.o
                0x10023793                bReceiveMbxIsLocked
 .bss.sSyncManInPar
                0x10023794       0x44 ./src/ethercat/beckhoff/Src/objdef.o
                0x10023794                sSyncManInPar
 .bss.sSyncManOutPar
                0x100237d8       0x44 ./src/ethercat/beckhoff/Src/objdef.o
                0x100237d8                sSyncManOutPar
 .bss.sCycleDiag
                0x1002381c        0x2 ./src/ethercat/beckhoff/Src/objdef.o
                0x1002381c                sCycleDiag
 .bss.bSyncSetByUser
                0x1002381e        0x1 ./src/ethercat/beckhoff/Src/objdef.o
                0x1002381e                bSyncSetByUser
 *fill*         0x1002381f        0x1 
 .bss.pSdoSegObjEntry
                0x10023820        0x4 ./src/ethercat/beckhoff/Src/sdoserv.o
                0x10023820                pSdoSegObjEntry
 .bss.nSdoSegCompleteSize
                0x10023824        0x4 ./src/ethercat/beckhoff/Src/sdoserv.o
                0x10023824                nSdoSegCompleteSize
 .bss.bSdoSegLastToggle
                0x10023828        0x1 ./src/ethercat/beckhoff/Src/sdoserv.o
                0x10023828                bSdoSegLastToggle
 *fill*         0x10023829        0x3 
 .bss.nSdoSegBytesToHandle
                0x1002382c        0x4 ./src/ethercat/beckhoff/Src/sdoserv.o
                0x1002382c                nSdoSegBytesToHandle
 .bss.nSdoSegSubindex
                0x10023830        0x1 ./src/ethercat/beckhoff/Src/sdoserv.o
                0x10023830                nSdoSegSubindex
 *fill*         0x10023831        0x1 
 .bss.nSdoSegIndex
                0x10023832        0x2 ./src/ethercat/beckhoff/Src/sdoserv.o
                0x10023832                nSdoSegIndex
 .bss.bSdoSegAccess
                0x10023834        0x1 ./src/ethercat/beckhoff/Src/sdoserv.o
                0x10023834                bSdoSegAccess
 .bss.bSdoSegFollows
                0x10023835        0x1 ./src/ethercat/beckhoff/Src/sdoserv.o
                0x10023835                bSdoSegFollows
 .bss.nSdoSegService
                0x10023836        0x1 ./src/ethercat/beckhoff/Src/sdoserv.o
                0x10023836                nSdoSegService
 .bss.bSdoInWork
                0x10023837        0x1 ./src/ethercat/beckhoff/Src/sdoserv.o
                0x10023837                bSdoInWork
 .bss.pSdoResStored
                0x10023838        0x4 ./src/ethercat/beckhoff/Src/sdoserv.o
                0x10023838                pSdoResStored
 .bss.pSdoInfoObjEntry
                0x1002383c        0x4 ./src/ethercat/beckhoff/Src/sdoserv.o
                0x1002383c                pSdoInfoObjEntry
 .bss.nSdoInfoIndex
                0x10023840        0x2 ./src/ethercat/beckhoff/Src/sdoserv.o
                0x10023840                nSdoInfoIndex
 .bss.nSdoInfoFragmentsLeft
                0x10023842        0x2 ./src/ethercat/beckhoff/Src/sdoserv.o
                0x10023842                nSdoInfoFragmentsLeft
 .bss.pSdoSegData
                0x10023844        0x4 ./src/ethercat/beckhoff/Src/sdoserv.o
                0x10023844                pSdoSegData
 .bss.aSdoInfoHeader
                0x10023848        0xe ./src/ethercat/beckhoff/Src/sdoserv.o
                0x10023848                aSdoInfoHeader
 *fill*         0x10023856        0x2 
 .bss.pSdoPendFunc
                0x10023858        0x4 ./src/ethercat/beckhoff/Src/sdoserv.o
                0x10023858                pSdoPendFunc
 .bss.pStoreData
                0x1002385c        0x4 ./src/ethercat/beckhoff/Src/sdoserv.o
                0x1002385c                pStoreData
 .bss.u32StoreDataSize
                0x10023860        0x4 ./src/ethercat/beckhoff/Src/sdoserv.o
                0x10023860                u32StoreDataSize
 .bss.u16StoreIndex
                0x10023864        0x2 ./src/ethercat/beckhoff/Src/sdoserv.o
                0x10023864                u16StoreIndex
 .bss.u8StoreSubindex
                0x10023866        0x1 ./src/ethercat/beckhoff/Src/sdoserv.o
                0x10023866                u8StoreSubindex
 .bss.bStoreCompleteAccess
                0x10023867        0x1 ./src/ethercat/beckhoff/Src/sdoserv.o
                0x10023867                bStoreCompleteAccess
 .bss.u8PendingSdo
                0x10023868        0x1 ./src/ethercat/beckhoff/Src/sdoserv.o
                0x10023868                u8PendingSdo
 *fill*         0x10023869        0x3 
 .bss.Circular_queue
                0x1002386c      0x3ec ./src/common/circular_queue.o
                0x1002386c                Circular_queue
 .bss.uartTxCompleteFlg
                0x10023c58        0x1 ./src/hal_entry.o
                0x10023c58                uartTxCompleteFlg
 *fill*         0x10023c59        0x3 
 .bss.g_ioport_ctrl
                0x10023c5c        0xc ./rzn_gen/common_data.o
                0x10023c5c                g_ioport_ctrl
 .bss.g_ethercat_ssc_port0_ctrl
                0x10023c68       0x10 ./rzn_gen/common_data.o
                0x10023c68                g_ethercat_ssc_port0_ctrl
 .bss.g_ether_phy0_ctrl
                0x10023c78       0x10 ./rzn_gen/common_data.o
                0x10023c78                g_ether_phy0_ctrl
 .bss.g_ether_selector0_ctrl
                0x10023c88        0xc ./rzn_gen/common_data.o
                0x10023c88                g_ether_selector0_ctrl
 .bss.g_ether_phy1_ctrl
                0x10023c94       0x10 ./rzn_gen/common_data.o
                0x10023c94                g_ether_phy1_ctrl
 .bss.g_ether_selector1_ctrl
                0x10023ca4        0xc ./rzn_gen/common_data.o
                0x10023ca4                g_ether_selector1_ctrl
 .bss.g_timer0_ctrl
                0x10023cb0       0x1c ./rzn_gen/common_data.o
                0x10023cb0                g_timer0_ctrl
 .bss.g_uart0_ctrl
                0x10023ccc       0x30 ./rzn_gen/hal_data.o
                0x10023ccc                g_uart0_ctrl
 .bss.g_qspi0_ctrl
                0x10023cfc       0x18 ./rzn_gen/hal_data.o
                0x10023cfc                g_qspi0_ctrl
 .bss.BaseTime  0x10023d14        0x2 ./rzn/fsp/src/rm_ethercat_ssc_port/rm_ethercat_ssc_port.o
 *fill*         0x10023d16        0x2 
 .bss.pEsc      0x10023d18        0x4 ./rzn/fsp/src/rm_ethercat_ssc_port/rm_ethercat_ssc_port.o
                0x10023d18                pEsc
 .bss.g_ether_selector_state_initialized.0
                0x10023d1c        0x1 ./rzn/fsp/src/r_ether_selector/r_ether_selector.o
 .bss.g_ether_phy_state_initialized.0
                0x10023d1d        0x1 ./rzn/fsp/src/r_ether_phy/r_ether_phy.o
 .bss.g_current_interrupt_pointer
                0x10023d1e        0x1 ./rzn/fsp/src/bsp/mcu/all/cr/bsp_irq_core.o
                0x10023d1e                g_current_interrupt_pointer
 *fill*         0x10023d1f        0x1 
 .bss.g_current_interrupt_num
                0x10023d20       0x40 ./rzn/fsp/src/bsp/mcu/all/cr/bsp_irq_core.o
                0x10023d20                g_current_interrupt_num
 .bss.gp_renesas_isr_context
                0x10023d60      0x780 ./rzn/fsp/src/bsp/mcu/all/cr/bsp_irq_core.o
                0x10023d60                gp_renesas_isr_context
 .bss.g_protect_port_counter
                0x100244e0        0x4 ./rzn/fsp/src/bsp/mcu/all/bsp_io.o
                0x100244e0                g_protect_port_counter
 .bss.g_protect_counters
                0x100244e4        0x8 ./rzn/fsp/src/bsp/mcu/all/bsp_register_protection.o
                0x100244e4                g_protect_counters
 .bss.current_heap_end.0
                0x100244ec        0x4 ./rzn/fsp/src/bsp/mcu/all/bsp_sbrk.o
 .bss.g_sgi_ppi_vector_table
                0x100244f0       0x80 ./rzn/fsp/src/bsp/cmsis/Device/RENESAS/Source/system.o
                0x100244f0                g_sgi_ppi_vector_table
 .bss.SystemCoreClock
                0x10024570        0x4 ./rzn/fsp/src/bsp/cmsis/Device/RENESAS/Source/system.o
                0x10024570                SystemCoreClock
 .bss.__malloc_sbrk_start
                0x10024574        0x4 d:/program files/gcc/arm gnu toolchain arm-none-eabi/12.2 rel1/bin/../lib/gcc/arm-none-eabi/12.2.1/thumb/v7+fp/hard\libg_nano.a(libc_a-mallocr.o)
                0x10024574                __malloc_sbrk_start
 .bss.__malloc_free_list
                0x10024578        0x4 d:/program files/gcc/arm gnu toolchain arm-none-eabi/12.2 rel1/bin/../lib/gcc/arm-none-eabi/12.2.1/thumb/v7+fp/hard\libg_nano.a(libc_a-mallocr.o)
                0x10024578                __malloc_free_list
 .bss.__lock___malloc_recursive_mutex
                0x1002457c        0x1 d:/program files/gcc/arm gnu toolchain arm-none-eabi/12.2 rel1/bin/../lib/gcc/arm-none-eabi/12.2.1/thumb/v7+fp/hard\libg_nano.a(libc_a-lock.o)
                0x1002457c                __lock___malloc_recursive_mutex
 .bss.__lock___sfp_recursive_mutex
                0x1002457d        0x1 d:/program files/gcc/arm gnu toolchain arm-none-eabi/12.2 rel1/bin/../lib/gcc/arm-none-eabi/12.2.1/thumb/v7+fp/hard\libg_nano.a(libc_a-lock.o)
                0x1002457d                __lock___sfp_recursive_mutex
 *fill*         0x1002457e        0x2 
 .bss.__sf      0x10024580      0x138 d:/program files/gcc/arm gnu toolchain arm-none-eabi/12.2 rel1/bin/../lib/gcc/arm-none-eabi/12.2.1/thumb/v7+fp/hard\libg_nano.a(libc_a-findfp.o)
                0x10024580                __sf
 .bss.__stdio_exit_handler
                0x100246b8        0x4 d:/program files/gcc/arm gnu toolchain arm-none-eabi/12.2 rel1/bin/../lib/gcc/arm-none-eabi/12.2.1/thumb/v7+fp/hard\libg_nano.a(libc_a-findfp.o)
                0x100246b8                __stdio_exit_handler
 .bss.errno     0x100246bc        0x4 d:/program files/gcc/arm gnu toolchain arm-none-eabi/12.2 rel1/bin/../lib/gcc/arm-none-eabi/12.2.1/thumb/v7+fp/hard\libg_nano.a(libc_a-reent.o)
                0x100246bc                errno
 *(COMMON)
                0x100246c0                . = ALIGN (0x4)
                0x100246c0                __bss_end__ = .
                0x100246c0                _ebss = .
                0x100246c0                _end = .

.heap           0x100246c0     0x2000 load address 0x60114720
                0x100246c0                . = ALIGN (0x8)
                0x100246c0                __HeapBase = .
 *(.heap)
 .heap          0x100246c0     0x2000 ./rzn/fsp/src/bsp/cmsis/Device/RENESAS/Source/cr/startup_core.o
                0x100266c0                __HeapLimit = .

.thread_stack   0x100266c0        0x0
                0x100266c0                . = ALIGN (0x8)
                0x100266c0                __ThreadStackBase = .
 *(.stack*)
                0x100266c0                __ThreadStackLimit = .

.sys_stack      0x100266c0     0x1000 load address 0x60116720
                0x100266c0                . = ALIGN (0x8)
                0x100266c0                __SysStackBase = .
 *(.sys_stack)
 .sys_stack     0x100266c0     0x1000 ./rzn/fsp/src/bsp/cmsis/Device/RENESAS/Source/cr/startup_core.o
                0x100276c0                __SysStackLimit = .

.svc_stack      0x100276c0     0x1000 load address 0x60117720
                0x100276c0                . = ALIGN (0x8)
                0x100276c0                __SvcStackBase = .
 *(.svc_stack)
 .svc_stack     0x100276c0     0x1000 ./rzn/fsp/src/bsp/cmsis/Device/RENESAS/Source/cr/startup_core.o
                0x100286c0                __SvcStackLimit = .

.irq_stack      0x100286c0     0x1000 load address 0x60118720
                0x100286c0                . = ALIGN (0x8)
                0x100286c0                __IrqStackBase = .
 *(.irq_stack)
 .irq_stack     0x100286c0     0x1000 ./rzn/fsp/src/bsp/cmsis/Device/RENESAS/Source/cr/startup_core.o
                0x100296c0                __IrqStackLimit = .

.fiq_stack      0x100296c0      0x400 load address 0x60119720
                0x100296c0                . = ALIGN (0x8)
                0x100296c0                __FiqStackBase = .
 *(.fiq_stack)
 .fiq_stack     0x100296c0      0x400 ./rzn/fsp/src/bsp/cmsis/Device/RENESAS/Source/cr/startup_core.o
                0x10029ac0                __FiqStackLimit = .

.und_stack      0x10029ac0      0x400 load address 0x60119b20
                0x10029ac0                . = ALIGN (0x8)
                0x10029ac0                __UndStackBase = .
 *(.und_stack)
 .und_stack     0x10029ac0      0x400 ./rzn/fsp/src/bsp/cmsis/Device/RENESAS/Source/cr/startup_core.o
                0x10029ec0                __UndStackLimit = .

.abt_stack      0x10029ec0      0x400 load address 0x60119f20
                0x10029ec0                . = ALIGN (0x8)
                0x10029ec0                __AbtStackBase = .
 *(.abt_stack)
 .abt_stack     0x10029ec0      0x400 ./rzn/fsp/src/bsp/cmsis/Device/RENESAS/Source/cr/startup_core.o
                0x1002a2c0                __AbtStackLimit = .

.data_noncache  0x30138000        0x0 load address 0x601129bc
                0x30138000                . = ALIGN (0x4)
                0x30138000                _data_noncache_start = .
 *(.data_noncache*)
                0x30138000                _data_noncache_end = .

.dmac_link_mode
                0x3013c000        0x0
                0x3013c000                . = ALIGN (0x4)
                0x3013c000                _DmacLinkMode_start = .
 *(.dmac_link_mode*)
                0x3013c000                _DmacLinkMode_end = .

.shared_noncache_buffer
                0x30140000        0x0
                0x30140000                . = ALIGN (0x20)
                0x30140000                _sncbuffer_start = .
 *(.shared_noncache_buffer*)
                0x30140000                _sncbuffer_end = .

.noncache_buffer
                0x30160000        0x0
                0x30160000                . = ALIGN (0x20)
                0x30160000                _ncbuffer_start = .
 *(.noncache_buffer*)
                0x30160000                _ncbuffer_end = .
OUTPUT(RZN2L_xspi0_app1.elf elf32-littlearm)
LOAD linker stubs

.debug_info     0x00000000    0x639dd
 .debug_info    0x00000000     0x33b2 ./src/ethercat/renesas/sampleappl.o
 .debug_info    0x000033b2      0xcd2 ./src/ethercat/renesas/samplecia402.o
 .debug_info    0x00004084      0x3c4 ./src/ethercat/renesas/samplefoe.o
 .debug_info    0x00004448      0x6e9 ./src/ethercat/renesas/sampleios.o
 .debug_info    0x00004b31     0x2c62 ./src/ethercat/beckhoff/Src/bootmode.o
 .debug_info    0x00007793     0x1c86 ./src/ethercat/beckhoff/Src/cia402appl.o
 .debug_info    0x00009419      0xcb3 ./src/ethercat/beckhoff/Src/coeappl.o
 .debug_info    0x0000a0cc      0xec7 ./src/ethercat/beckhoff/Src/ecatappl.o
 .debug_info    0x0000af93      0x51e ./src/ethercat/beckhoff/Src/ecatcoe.o
 .debug_info    0x0000b4b1      0x5be ./src/ethercat/beckhoff/Src/ecatfoe.o
 .debug_info    0x0000ba6f     0x1594 ./src/ethercat/beckhoff/Src/ecatslv.o
 .debug_info    0x0000d003      0x3dc ./src/ethercat/beckhoff/Src/foeappl.o
 .debug_info    0x0000d3df      0xcec ./src/ethercat/beckhoff/Src/mailbox.o
 .debug_info    0x0000e0cb     0x117b ./src/ethercat/beckhoff/Src/objdef.o
 .debug_info    0x0000f246     0x13fd ./src/ethercat/beckhoff/Src/sdoserv.o
 .debug_info    0x00010643      0x21a ./src/common/bank_detection.o
 .debug_info    0x0001085d      0x24f ./src/common/bsp_r52_global_counter.o
 .debug_info    0x00010aac      0x362 ./src/common/circular_queue.o
 .debug_info    0x00010e0e      0x53a ./src/common/crc32_table.o
 .debug_info    0x00011348     0x23be ./src/common/sbl_boot_params.o
 .debug_info    0x00013706     0x4378 ./src/hal_entry.o
 .debug_info    0x00017a7e      0x7a0 ./src/syscall.o
 .debug_info    0x0001821e     0x54d0 ./rzn_gen/common_data.o
 .debug_info    0x0001d6ee     0x404e ./rzn_gen/hal_data.o
 .debug_info    0x0002173c       0xb1 ./rzn_gen/main.o
 .debug_info    0x000217ed     0x1cbd ./rzn_gen/pin_data.o
 .debug_info    0x000234aa       0xeb ./rzn_gen/vector_data.o
 .debug_info    0x00023595     0xb99a ./rzn/fsp/src/rm_ethercat_ssc_port/rm_ethercat_ssc_port.o
 .debug_info    0x0002ef2f     0x33dd ./rzn/fsp/src/r_xspi_qspi/r_xspi_qspi.o
 .debug_info    0x0003230c     0x52fe ./rzn/fsp/src/r_sci_uart/r_sci_uart.o
 .debug_info    0x0003760a     0x3092 ./rzn/fsp/src/r_ioport/r_ioport.o
 .debug_info    0x0003a69c     0x1b2a ./rzn/fsp/src/r_ether_selector/r_ether_selector.o
 .debug_info    0x0003c1c6    0x1d4cb ./rzn/fsp/src/r_ether_phy/r_ether_phy.o
 .debug_info    0x00059691     0x312a ./rzn/fsp/src/r_cmt/r_cmt.o
 .debug_info    0x0005c7bb       0xe1 ./rzn/fsp/src/bsp/mcu/rzn2l/bsp_irq_sense.o
 .debug_info    0x0005c89c       0xbb ./rzn/fsp/src/bsp/mcu/all/cr/bsp_delay_core.o
 .debug_info    0x0005c957     0x1132 ./rzn/fsp/src/bsp/mcu/all/cr/bsp_irq_core.o
 .debug_info    0x0005da89      0xeaa ./rzn/fsp/src/bsp/mcu/all/bsp_cache.o
 .debug_info    0x0005e933     0x10ad ./rzn/fsp/src/bsp/mcu/all/bsp_clocks.o
 .debug_info    0x0005f9e0      0x98d ./rzn/fsp/src/bsp/mcu/all/bsp_common.o
 .debug_info    0x0006036d      0x228 ./rzn/fsp/src/bsp/mcu/all/bsp_delay.o
 .debug_info    0x00060595       0xb2 ./rzn/fsp/src/bsp/mcu/all/bsp_io.o
 .debug_info    0x00060647       0xa7 ./rzn/fsp/src/bsp/mcu/all/bsp_irq.o
 .debug_info    0x000606ee      0x286 ./rzn/fsp/src/bsp/mcu/all/bsp_register_protection.o
 .debug_info    0x00060974      0xe73 ./rzn/fsp/src/bsp/mcu/all/bsp_reset.o
 .debug_info    0x000617e7      0x142 ./rzn/fsp/src/bsp/mcu/all/bsp_sbrk.o
 .debug_info    0x00061929      0x233 ./rzn/fsp/src/bsp/cmsis/Device/RENESAS/Source/cr/startup_core.o
 .debug_info    0x00061b5c      0x7be ./rzn/fsp/src/bsp/cmsis/Device/RENESAS/Source/cr/system_core.o
 .debug_info    0x0006231a      0x2b7 ./rzn/fsp/src/bsp/cmsis/Device/RENESAS/Source/startup.o
 .debug_info    0x000625d1     0x140c ./rzn/fsp/src/bsp/cmsis/Device/RENESAS/Source/system.o

.debug_abbrev   0x00000000     0x7a12
 .debug_abbrev  0x00000000      0x49d ./src/ethercat/renesas/sampleappl.o
 .debug_abbrev  0x0000049d      0x26b ./src/ethercat/renesas/samplecia402.o
 .debug_abbrev  0x00000708      0x158 ./src/ethercat/renesas/samplefoe.o
 .debug_abbrev  0x00000860       0xdc ./src/ethercat/renesas/sampleios.o
 .debug_abbrev  0x0000093c      0x4c5 ./src/ethercat/beckhoff/Src/bootmode.o
 .debug_abbrev  0x00000e01      0x314 ./src/ethercat/beckhoff/Src/cia402appl.o
 .debug_abbrev  0x00001115      0x282 ./src/ethercat/beckhoff/Src/coeappl.o
 .debug_abbrev  0x00001397      0x2ef ./src/ethercat/beckhoff/Src/ecatappl.o
 .debug_abbrev  0x00001686      0x1fa ./src/ethercat/beckhoff/Src/ecatcoe.o
 .debug_abbrev  0x00001880      0x23c ./src/ethercat/beckhoff/Src/ecatfoe.o
 .debug_abbrev  0x00001abc      0x309 ./src/ethercat/beckhoff/Src/ecatslv.o
 .debug_abbrev  0x00001dc5      0x13f ./src/ethercat/beckhoff/Src/foeappl.o
 .debug_abbrev  0x00001f04      0x2c9 ./src/ethercat/beckhoff/Src/mailbox.o
 .debug_abbrev  0x000021cd      0x2ac ./src/ethercat/beckhoff/Src/objdef.o
 .debug_abbrev  0x00002479      0x39d ./src/ethercat/beckhoff/Src/sdoserv.o
 .debug_abbrev  0x00002816      0x132 ./src/common/bank_detection.o
 .debug_abbrev  0x00002948       0xf7 ./src/common/bsp_r52_global_counter.o
 .debug_abbrev  0x00002a3f      0x149 ./src/common/circular_queue.o
 .debug_abbrev  0x00002b88      0x22d ./src/common/crc32_table.o
 .debug_abbrev  0x00002db5      0x320 ./src/common/sbl_boot_params.o
 .debug_abbrev  0x000030d5      0x4c6 ./src/hal_entry.o
 .debug_abbrev  0x0000359b      0x202 ./src/syscall.o
 .debug_abbrev  0x0000379d      0x287 ./rzn_gen/common_data.o
 .debug_abbrev  0x00003a24      0x2eb ./rzn_gen/hal_data.o
 .debug_abbrev  0x00003d0f       0x61 ./rzn_gen/main.o
 .debug_abbrev  0x00003d70      0x110 ./rzn_gen/pin_data.o
 .debug_abbrev  0x00003e80       0x86 ./rzn_gen/vector_data.o
 .debug_abbrev  0x00003f06      0x6c9 ./rzn/fsp/src/rm_ethercat_ssc_port/rm_ethercat_ssc_port.o
 .debug_abbrev  0x000045cf      0x484 ./rzn/fsp/src/r_xspi_qspi/r_xspi_qspi.o
 .debug_abbrev  0x00004a53      0x63d ./rzn/fsp/src/r_sci_uart/r_sci_uart.o
 .debug_abbrev  0x00005090      0x4ba ./rzn/fsp/src/r_ioport/r_ioport.o
 .debug_abbrev  0x0000554a      0x3cd ./rzn/fsp/src/r_ether_selector/r_ether_selector.o
 .debug_abbrev  0x00005917      0x4ae ./rzn/fsp/src/r_ether_phy/r_ether_phy.o
 .debug_abbrev  0x00005dc5      0x570 ./rzn/fsp/src/r_cmt/r_cmt.o
 .debug_abbrev  0x00006335       0x63 ./rzn/fsp/src/bsp/mcu/rzn2l/bsp_irq_sense.o
 .debug_abbrev  0x00006398       0x63 ./rzn/fsp/src/bsp/mcu/all/cr/bsp_delay_core.o
 .debug_abbrev  0x000063fb      0x1e6 ./rzn/fsp/src/bsp/mcu/all/cr/bsp_irq_core.o
 .debug_abbrev  0x000065e1      0x240 ./rzn/fsp/src/bsp/mcu/all/bsp_cache.o
 .debug_abbrev  0x00006821      0x21a ./rzn/fsp/src/bsp/mcu/all/bsp_clocks.o
 .debug_abbrev  0x00006a3b      0x182 ./rzn/fsp/src/bsp/mcu/all/bsp_common.o
 .debug_abbrev  0x00006bbd      0x16e ./rzn/fsp/src/bsp/mcu/all/bsp_delay.o
 .debug_abbrev  0x00006d2b       0x5e ./rzn/fsp/src/bsp/mcu/all/bsp_io.o
 .debug_abbrev  0x00006d89       0x5f ./rzn/fsp/src/bsp/mcu/all/bsp_irq.o
 .debug_abbrev  0x00006de8      0x145 ./rzn/fsp/src/bsp/mcu/all/bsp_register_protection.o
 .debug_abbrev  0x00006f2d      0x21e ./rzn/fsp/src/bsp/mcu/all/bsp_reset.o
 .debug_abbrev  0x0000714b       0xce ./rzn/fsp/src/bsp/mcu/all/bsp_sbrk.o
 .debug_abbrev  0x00007219      0x10a ./rzn/fsp/src/bsp/cmsis/Device/RENESAS/Source/cr/startup_core.o
 .debug_abbrev  0x00007323      0x257 ./rzn/fsp/src/bsp/cmsis/Device/RENESAS/Source/cr/system_core.o
 .debug_abbrev  0x0000757a      0x118 ./rzn/fsp/src/bsp/cmsis/Device/RENESAS/Source/startup.o
 .debug_abbrev  0x00007692      0x380 ./rzn/fsp/src/bsp/cmsis/Device/RENESAS/Source/system.o

.debug_loclists
                0x00000000     0xd61f
 .debug_loclists
                0x00000000      0x706 ./src/ethercat/renesas/sampleappl.o
 .debug_loclists
                0x00000706      0x1ed ./src/ethercat/renesas/samplecia402.o
 .debug_loclists
                0x000008f3      0x13a ./src/ethercat/renesas/samplefoe.o
 .debug_loclists
                0x00000a2d      0x24b ./src/ethercat/beckhoff/Src/bootmode.o
 .debug_loclists
                0x00000c78      0x73e ./src/ethercat/beckhoff/Src/cia402appl.o
 .debug_loclists
                0x000013b6      0x276 ./src/ethercat/beckhoff/Src/coeappl.o
 .debug_loclists
                0x0000162c      0x631 ./src/ethercat/beckhoff/Src/ecatappl.o
 .debug_loclists
                0x00001c5d       0xd5 ./src/ethercat/beckhoff/Src/ecatcoe.o
 .debug_loclists
                0x00001d32      0x29a ./src/ethercat/beckhoff/Src/ecatfoe.o
 .debug_loclists
                0x00001fcc      0xe9a ./src/ethercat/beckhoff/Src/ecatslv.o
 .debug_loclists
                0x00002e66      0x227 ./src/ethercat/beckhoff/Src/foeappl.o
 .debug_loclists
                0x0000308d      0x458 ./src/ethercat/beckhoff/Src/mailbox.o
 .debug_loclists
                0x000034e5     0x12bd ./src/ethercat/beckhoff/Src/objdef.o
 .debug_loclists
                0x000047a2      0xe36 ./src/ethercat/beckhoff/Src/sdoserv.o
 .debug_loclists
                0x000055d8       0xac ./src/common/bank_detection.o
 .debug_loclists
                0x00005684      0x23c ./src/common/circular_queue.o
 .debug_loclists
                0x000058c0      0x3f3 ./src/common/crc32_table.o
 .debug_loclists
                0x00005cb3      0x103 ./src/common/sbl_boot_params.o
 .debug_loclists
                0x00005db6      0x108 ./src/hal_entry.o
 .debug_loclists
                0x00005ebe      0x255 ./src/syscall.o
 .debug_loclists
                0x00006113     0x1cfc ./rzn/fsp/src/rm_ethercat_ssc_port/rm_ethercat_ssc_port.o
 .debug_loclists
                0x00007e0f      0x834 ./rzn/fsp/src/r_xspi_qspi/r_xspi_qspi.o
 .debug_loclists
                0x00008643     0x1904 ./rzn/fsp/src/r_sci_uart/r_sci_uart.o
 .debug_loclists
                0x00009f47      0xb5b ./rzn/fsp/src/r_ioport/r_ioport.o
 .debug_loclists
                0x0000aaa2      0x326 ./rzn/fsp/src/r_ether_selector/r_ether_selector.o
 .debug_loclists
                0x0000adc8      0xdee ./rzn/fsp/src/r_ether_phy/r_ether_phy.o
 .debug_loclists
                0x0000bbb6      0xa89 ./rzn/fsp/src/r_cmt/r_cmt.o
 .debug_loclists
                0x0000c63f       0x7c ./rzn/fsp/src/bsp/mcu/all/cr/bsp_irq_core.o
 .debug_loclists
                0x0000c6bb      0x876 ./rzn/fsp/src/bsp/mcu/all/bsp_cache.o
 .debug_loclists
                0x0000cf31       0x8c ./rzn/fsp/src/bsp/mcu/all/bsp_clocks.o
 .debug_loclists
                0x0000cfbd       0x20 ./rzn/fsp/src/bsp/mcu/all/bsp_common.o
 .debug_loclists
                0x0000cfdd       0xe5 ./rzn/fsp/src/bsp/mcu/all/bsp_delay.o
 .debug_loclists
                0x0000d0c2       0xb3 ./rzn/fsp/src/bsp/mcu/all/bsp_reset.o
 .debug_loclists
                0x0000d175       0xa4 ./rzn/fsp/src/bsp/mcu/all/bsp_sbrk.o
 .debug_loclists
                0x0000d219      0x1ac ./rzn/fsp/src/bsp/cmsis/Device/RENESAS/Source/cr/system_core.o
 .debug_loclists
                0x0000d3c5      0x25a ./rzn/fsp/src/bsp/cmsis/Device/RENESAS/Source/system.o

.debug_aranges  0x00000000      0xf68
 .debug_aranges
                0x00000000       0x88 ./src/ethercat/renesas/sampleappl.o
 .debug_aranges
                0x00000088       0xb0 ./src/ethercat/renesas/samplecia402.o
 .debug_aranges
                0x00000138       0x38 ./src/ethercat/renesas/samplefoe.o
 .debug_aranges
                0x00000170       0x18 ./src/ethercat/renesas/sampleios.o
 .debug_aranges
                0x00000188       0x60 ./src/ethercat/beckhoff/Src/bootmode.o
 .debug_aranges
                0x000001e8       0x48 ./src/ethercat/beckhoff/Src/cia402appl.o
 .debug_aranges
                0x00000230       0x70 ./src/ethercat/beckhoff/Src/coeappl.o
 .debug_aranges
                0x000002a0       0x88 ./src/ethercat/beckhoff/Src/ecatappl.o
 .debug_aranges
                0x00000328       0x30 ./src/ethercat/beckhoff/Src/ecatcoe.o
 .debug_aranges
                0x00000358       0x30 ./src/ethercat/beckhoff/Src/ecatfoe.o
 .debug_aranges
                0x00000388       0xb8 ./src/ethercat/beckhoff/Src/ecatslv.o
 .debug_aranges
                0x00000440       0x48 ./src/ethercat/beckhoff/Src/foeappl.o
 .debug_aranges
                0x00000488       0x80 ./src/ethercat/beckhoff/Src/mailbox.o
 .debug_aranges
                0x00000508       0x78 ./src/ethercat/beckhoff/Src/objdef.o
 .debug_aranges
                0x00000580       0x40 ./src/ethercat/beckhoff/Src/sdoserv.o
 .debug_aranges
                0x000005c0       0x40 ./src/common/bank_detection.o
 .debug_aranges
                0x00000600       0x20 ./src/common/bsp_r52_global_counter.o
 .debug_aranges
                0x00000620       0x50 ./src/common/circular_queue.o
 .debug_aranges
                0x00000670       0x40 ./src/common/crc32_table.o
 .debug_aranges
                0x000006b0       0x68 ./src/common/sbl_boot_params.o
 .debug_aranges
                0x00000718       0x40 ./src/hal_entry.o
 .debug_aranges
                0x00000758       0xa8 ./src/syscall.o
 .debug_aranges
                0x00000800       0x20 ./rzn_gen/common_data.o
 .debug_aranges
                0x00000820       0x20 ./rzn_gen/hal_data.o
 .debug_aranges
                0x00000840       0x20 ./rzn_gen/main.o
 .debug_aranges
                0x00000860       0x18 ./rzn_gen/pin_data.o
 .debug_aranges
                0x00000878       0x18 ./rzn_gen/vector_data.o
 .debug_aranges
                0x00000890       0xa0 ./rzn/fsp/src/rm_ethercat_ssc_port/rm_ethercat_ssc_port.o
 .debug_aranges
                0x00000930       0x98 ./rzn/fsp/src/r_xspi_qspi/r_xspi_qspi.o
 .debug_aranges
                0x000009c8       0xb8 ./rzn/fsp/src/r_sci_uart/r_sci_uart.o
 .debug_aranges
                0x00000a80       0x90 ./rzn/fsp/src/r_ioport/r_ioport.o
 .debug_aranges
                0x00000b10       0x30 ./rzn/fsp/src/r_ether_selector/r_ether_selector.o
 .debug_aranges
                0x00000b40       0x60 ./rzn/fsp/src/r_ether_phy/r_ether_phy.o
 .debug_aranges
                0x00000ba0       0x88 ./rzn/fsp/src/r_cmt/r_cmt.o
 .debug_aranges
                0x00000c28       0x18 ./rzn/fsp/src/bsp/mcu/rzn2l/bsp_irq_sense.o
 .debug_aranges
                0x00000c40       0x20 ./rzn/fsp/src/bsp/mcu/all/cr/bsp_delay_core.o
 .debug_aranges
                0x00000c60       0x28 ./rzn/fsp/src/bsp/mcu/all/cr/bsp_irq_core.o
 .debug_aranges
                0x00000c88       0x80 ./rzn/fsp/src/bsp/mcu/all/bsp_cache.o
 .debug_aranges
                0x00000d08       0x30 ./rzn/fsp/src/bsp/mcu/all/bsp_clocks.o
 .debug_aranges
                0x00000d38       0x28 ./rzn/fsp/src/bsp/mcu/all/bsp_common.o
 .debug_aranges
                0x00000d60       0x28 ./rzn/fsp/src/bsp/mcu/all/bsp_delay.o
 .debug_aranges
                0x00000d88       0x18 ./rzn/fsp/src/bsp/mcu/all/bsp_io.o
 .debug_aranges
                0x00000da0       0x20 ./rzn/fsp/src/bsp/mcu/all/bsp_irq.o
 .debug_aranges
                0x00000dc0       0x28 ./rzn/fsp/src/bsp/mcu/all/bsp_register_protection.o
 .debug_aranges
                0x00000de8       0x40 ./rzn/fsp/src/bsp/mcu/all/bsp_reset.o
 .debug_aranges
                0x00000e28       0x20 ./rzn/fsp/src/bsp/mcu/all/bsp_sbrk.o
 .debug_aranges
                0x00000e48       0x50 ./rzn/fsp/src/bsp/cmsis/Device/RENESAS/Source/cr/startup_core.o
 .debug_aranges
                0x00000e98       0x40 ./rzn/fsp/src/bsp/cmsis/Device/RENESAS/Source/cr/system_core.o
 .debug_aranges
                0x00000ed8       0x20 ./rzn/fsp/src/bsp/cmsis/Device/RENESAS/Source/startup.o
 .debug_aranges
                0x00000ef8       0x70 ./rzn/fsp/src/bsp/cmsis/Device/RENESAS/Source/system.o

.debug_rnglists
                0x00000000     0x1678
 .debug_rnglists
                0x00000000       0x80 ./src/ethercat/renesas/sampleappl.o
 .debug_rnglists
                0x00000080       0x80 ./src/ethercat/renesas/samplecia402.o
 .debug_rnglists
                0x00000100       0x26 ./src/ethercat/renesas/samplefoe.o
 .debug_rnglists
                0x00000126       0x54 ./src/ethercat/beckhoff/Src/bootmode.o
 .debug_rnglists
                0x0000017a       0x78 ./src/ethercat/beckhoff/Src/cia402appl.o
 .debug_rnglists
                0x000001f2       0x7b ./src/ethercat/beckhoff/Src/coeappl.o
 .debug_rnglists
                0x0000026d       0xdd ./src/ethercat/beckhoff/Src/ecatappl.o
 .debug_rnglists
                0x0000034a       0x1f ./src/ethercat/beckhoff/Src/ecatcoe.o
 .debug_rnglists
                0x00000369       0x61 ./src/ethercat/beckhoff/Src/ecatfoe.o
 .debug_rnglists
                0x000003ca       0xb7 ./src/ethercat/beckhoff/Src/ecatslv.o
 .debug_rnglists
                0x00000481       0x31 ./src/ethercat/beckhoff/Src/foeappl.o
 .debug_rnglists
                0x000004b2       0x87 ./src/ethercat/beckhoff/Src/mailbox.o
 .debug_rnglists
                0x00000539      0x1fc ./src/ethercat/beckhoff/Src/objdef.o
 .debug_rnglists
                0x00000735      0x186 ./src/ethercat/beckhoff/Src/sdoserv.o
 .debug_rnglists
                0x000008bb       0x2b ./src/common/bank_detection.o
 .debug_rnglists
                0x000008e6       0x13 ./src/common/bsp_r52_global_counter.o
 .debug_rnglists
                0x000008f9       0x37 ./src/common/circular_queue.o
 .debug_rnglists
                0x00000930       0x74 ./src/common/crc32_table.o
 .debug_rnglists
                0x000009a4       0x4a ./src/common/sbl_boot_params.o
 .debug_rnglists
                0x000009ee       0x38 ./src/hal_entry.o
 .debug_rnglists
                0x00000a26       0x79 ./src/syscall.o
 .debug_rnglists
                0x00000a9f       0x13 ./rzn_gen/common_data.o
 .debug_rnglists
                0x00000ab2       0x13 ./rzn_gen/hal_data.o
 .debug_rnglists
                0x00000ac5       0x13 ./rzn_gen/main.o
 .debug_rnglists
                0x00000ad8      0x2ec ./rzn/fsp/src/rm_ethercat_ssc_port/rm_ethercat_ssc_port.o
 .debug_rnglists
                0x00000dc4       0xa3 ./rzn/fsp/src/r_xspi_qspi/r_xspi_qspi.o
 .debug_rnglists
                0x00000e67      0x2d9 ./rzn/fsp/src/r_sci_uart/r_sci_uart.o
 .debug_rnglists
                0x00001140       0xc5 ./rzn/fsp/src/r_ioport/r_ioport.o
 .debug_rnglists
                0x00001205       0x2e ./rzn/fsp/src/r_ether_selector/r_ether_selector.o
 .debug_rnglists
                0x00001233       0xcb ./rzn/fsp/src/r_ether_phy/r_ether_phy.o
 .debug_rnglists
                0x000012fe       0xa7 ./rzn/fsp/src/r_cmt/r_cmt.o
 .debug_rnglists
                0x000013a5       0x13 ./rzn/fsp/src/bsp/mcu/all/cr/bsp_delay_core.o
 .debug_rnglists
                0x000013b8       0x19 ./rzn/fsp/src/bsp/mcu/all/cr/bsp_irq_core.o
 .debug_rnglists
                0x000013d1       0xdc ./rzn/fsp/src/bsp/mcu/all/bsp_cache.o
 .debug_rnglists
                0x000014ad       0x2c ./rzn/fsp/src/bsp/mcu/all/bsp_clocks.o
 .debug_rnglists
                0x000014d9       0x19 ./rzn/fsp/src/bsp/mcu/all/bsp_common.o
 .debug_rnglists
                0x000014f2       0x1a ./rzn/fsp/src/bsp/mcu/all/bsp_delay.o
 .debug_rnglists
                0x0000150c       0x13 ./rzn/fsp/src/bsp/mcu/all/bsp_irq.o
 .debug_rnglists
                0x0000151f       0x19 ./rzn/fsp/src/bsp/mcu/all/bsp_register_protection.o
 .debug_rnglists
                0x00001538       0x2b ./rzn/fsp/src/bsp/mcu/all/bsp_reset.o
 .debug_rnglists
                0x00001563       0x13 ./rzn/fsp/src/bsp/mcu/all/bsp_sbrk.o
 .debug_rnglists
                0x00001576       0x37 ./rzn/fsp/src/bsp/cmsis/Device/RENESAS/Source/cr/startup_core.o
 .debug_rnglists
                0x000015ad       0x5b ./rzn/fsp/src/bsp/cmsis/Device/RENESAS/Source/cr/system_core.o
 .debug_rnglists
                0x00001608       0x13 ./rzn/fsp/src/bsp/cmsis/Device/RENESAS/Source/startup.o
 .debug_rnglists
                0x0000161b       0x5d ./rzn/fsp/src/bsp/cmsis/Device/RENESAS/Source/system.o

.debug_line     0x00000000    0x17a40
 .debug_line    0x00000000     0x10f1 ./src/ethercat/renesas/sampleappl.o
 .debug_line    0x000010f1      0x4ce ./src/ethercat/renesas/samplecia402.o
 .debug_line    0x000015bf      0x2ec ./src/ethercat/renesas/samplefoe.o
 .debug_line    0x000018ab      0x18f ./src/ethercat/renesas/sampleios.o
 .debug_line    0x00001a3a      0xad1 ./src/ethercat/beckhoff/Src/bootmode.o
 .debug_line    0x0000250b      0xce5 ./src/ethercat/beckhoff/Src/cia402appl.o
 .debug_line    0x000031f0      0x801 ./src/ethercat/beckhoff/Src/coeappl.o
 .debug_line    0x000039f1      0xe11 ./src/ethercat/beckhoff/Src/ecatappl.o
 .debug_line    0x00004802      0x207 ./src/ethercat/beckhoff/Src/ecatcoe.o
 .debug_line    0x00004a09      0x4e1 ./src/ethercat/beckhoff/Src/ecatfoe.o
 .debug_line    0x00004eea     0x1e66 ./src/ethercat/beckhoff/Src/ecatslv.o
 .debug_line    0x00006d50      0x198 ./src/ethercat/beckhoff/Src/foeappl.o
 .debug_line    0x00006ee8      0xabe ./src/ethercat/beckhoff/Src/mailbox.o
 .debug_line    0x000079a6     0x134a ./src/ethercat/beckhoff/Src/objdef.o
 .debug_line    0x00008cf0      0xf27 ./src/ethercat/beckhoff/Src/sdoserv.o
 .debug_line    0x00009c17      0x2a2 ./src/common/bank_detection.o
 .debug_line    0x00009eb9      0x1e2 ./src/common/bsp_r52_global_counter.o
 .debug_line    0x0000a09b      0x434 ./src/common/circular_queue.o
 .debug_line    0x0000a4cf      0x535 ./src/common/crc32_table.o
 .debug_line    0x0000aa04      0x77e ./src/common/sbl_boot_params.o
 .debug_line    0x0000b182      0x809 ./src/hal_entry.o
 .debug_line    0x0000b98b      0x3ea ./src/syscall.o
 .debug_line    0x0000bd75      0x516 ./rzn_gen/common_data.o
 .debug_line    0x0000c28b      0x451 ./rzn_gen/hal_data.o
 .debug_line    0x0000c6dc       0x57 ./rzn_gen/main.o
 .debug_line    0x0000c733      0x2a7 ./rzn_gen/pin_data.o
 .debug_line    0x0000c9da       0xf2 ./rzn_gen/vector_data.o
 .debug_line    0x0000cacc     0x196a ./rzn/fsp/src/rm_ethercat_ssc_port/rm_ethercat_ssc_port.o
 .debug_line    0x0000e436      0xcd2 ./rzn/fsp/src/r_xspi_qspi/r_xspi_qspi.o
 .debug_line    0x0000f108     0x1c7b ./rzn/fsp/src/r_sci_uart/r_sci_uart.o
 .debug_line    0x00010d83      0xff8 ./rzn/fsp/src/r_ioport/r_ioport.o
 .debug_line    0x00011d7b      0x76f ./rzn/fsp/src/r_ether_selector/r_ether_selector.o
 .debug_line    0x000124ea      0xf9d ./rzn/fsp/src/r_ether_phy/r_ether_phy.o
 .debug_line    0x00013487      0xc07 ./rzn/fsp/src/r_cmt/r_cmt.o
 .debug_line    0x0001408e      0x124 ./rzn/fsp/src/bsp/mcu/rzn2l/bsp_irq_sense.o
 .debug_line    0x000141b2      0x13e ./rzn/fsp/src/bsp/mcu/all/cr/bsp_delay_core.o
 .debug_line    0x000142f0      0x499 ./rzn/fsp/src/bsp/mcu/all/cr/bsp_irq_core.o
 .debug_line    0x00014789      0xc0c ./rzn/fsp/src/bsp/mcu/all/bsp_cache.o
 .debug_line    0x00015395      0x584 ./rzn/fsp/src/bsp/mcu/all/bsp_clocks.o
 .debug_line    0x00015919      0x238 ./rzn/fsp/src/bsp/mcu/all/bsp_common.o
 .debug_line    0x00015b51      0x31d ./rzn/fsp/src/bsp/mcu/all/bsp_delay.o
 .debug_line    0x00015e6e      0x180 ./rzn/fsp/src/bsp/mcu/all/bsp_io.o
 .debug_line    0x00015fee       0xcb ./rzn/fsp/src/bsp/mcu/all/bsp_irq.o
 .debug_line    0x000160b9      0x2c5 ./rzn/fsp/src/bsp/mcu/all/bsp_register_protection.o
 .debug_line    0x0001637e      0x346 ./rzn/fsp/src/bsp/mcu/all/bsp_reset.o
 .debug_line    0x000166c4      0x19e ./rzn/fsp/src/bsp/mcu/all/bsp_sbrk.o
 .debug_line    0x00016862      0x1f6 ./rzn/fsp/src/bsp/cmsis/Device/RENESAS/Source/cr/startup_core.o
 .debug_line    0x00016a58      0x554 ./rzn/fsp/src/bsp/cmsis/Device/RENESAS/Source/cr/system_core.o
 .debug_line    0x00016fac      0x284 ./rzn/fsp/src/bsp/cmsis/Device/RENESAS/Source/startup.o
 .debug_line    0x00017230      0x810 ./rzn/fsp/src/bsp/cmsis/Device/RENESAS/Source/system.o

.debug_str      0x00000000    0x2374f
 .debug_str     0x00000000     0x3d3c ./src/ethercat/renesas/sampleappl.o
                               0x3e1f (size before relaxing)
 .debug_str     0x00003d3c      0x20b ./src/ethercat/renesas/samplecia402.o
                                0xb34 (size before relaxing)
 .debug_str     0x00003f47      0x125 ./src/ethercat/renesas/samplefoe.o
                                0x33c (size before relaxing)
 .debug_str     0x0000406c       0x4b ./src/ethercat/renesas/sampleios.o
                               0x1343 (size before relaxing)
 .debug_str     0x000040b7     0x1499 ./src/ethercat/beckhoff/Src/bootmode.o
                               0x318a (size before relaxing)
 .debug_str     0x00005550      0x81c ./src/ethercat/beckhoff/Src/cia402appl.o
                               0x138d (size before relaxing)
 .debug_str     0x00005d6c      0x5bf ./src/ethercat/beckhoff/Src/coeappl.o
                                0x935 (size before relaxing)
 .debug_str     0x0000632b      0x587 ./src/ethercat/beckhoff/Src/ecatappl.o
                                0xac2 (size before relaxing)
 .debug_str     0x000068b2      0x181 ./src/ethercat/beckhoff/Src/ecatcoe.o
                                0x40a (size before relaxing)
 .debug_str     0x00006a33      0x18e ./src/ethercat/beckhoff/Src/ecatfoe.o
                                0x409 (size before relaxing)
 .debug_str     0x00006bc1      0x4e7 ./src/ethercat/beckhoff/Src/ecatslv.o
                                0xc89 (size before relaxing)
 .debug_str     0x000070a8       0x41 ./src/ethercat/beckhoff/Src/foeappl.o
                                0x31b (size before relaxing)
 .debug_str     0x000070e9      0x1b1 ./src/ethercat/beckhoff/Src/mailbox.o
                                0x695 (size before relaxing)
 .debug_str     0x0000729a      0x213 ./src/ethercat/beckhoff/Src/objdef.o
                                0x79e (size before relaxing)
 .debug_str     0x000074ad      0x276 ./src/ethercat/beckhoff/Src/sdoserv.o
                                0x898 (size before relaxing)
 .debug_str     0x00007723       0x74 ./src/common/bank_detection.o
                                0x340 (size before relaxing)
 .debug_str     0x00007797       0xd0 ./src/common/bsp_r52_global_counter.o
                                0x2fd (size before relaxing)
 .debug_str     0x00007867       0x7e ./src/common/circular_queue.o
                                0x319 (size before relaxing)
 .debug_str     0x000078e5       0xf7 ./src/common/crc32_table.o
                                0x359 (size before relaxing)
 .debug_str     0x000079dc       0xd1 ./src/common/sbl_boot_params.o
                               0x2dd3 (size before relaxing)
 .debug_str     0x00007aad     0x15ed ./src/hal_entry.o
                               0x53e8 (size before relaxing)
 .debug_str     0x0000909a      0x1eb ./src/syscall.o
                                0x454 (size before relaxing)
 .debug_str     0x00009285     0x2af8 ./rzn_gen/common_data.o
                               0x64ba (size before relaxing)
 .debug_str     0x0000bd7d      0xee3 ./rzn_gen/hal_data.o
                               0x5931 (size before relaxing)
 .debug_str     0x0000cc60       0x17 ./rzn_gen/main.o
                                0x212 (size before relaxing)
 .debug_str     0x0000cc77     0x647d ./rzn_gen/pin_data.o
                               0x7b64 (size before relaxing)
 .debug_str     0x000130f4       0xe6 ./rzn_gen/vector_data.o
                                0x2d1 (size before relaxing)
 .debug_str     0x000131da     0x29b3 ./rzn/fsp/src/rm_ethercat_ssc_port/rm_ethercat_ssc_port.o
                               0x8890 (size before relaxing)
 .debug_str     0x00015b8d      0x276 ./rzn/fsp/src/r_xspi_qspi/r_xspi_qspi.o
                               0x3aa1 (size before relaxing)
 .debug_str     0x00015e03      0x776 ./rzn/fsp/src/r_sci_uart/r_sci_uart.o
                               0x5096 (size before relaxing)
 .debug_str     0x00016579      0x2b9 ./rzn/fsp/src/r_ioport/r_ioport.o
                               0x3a66 (size before relaxing)
 .debug_str     0x00016832      0x131 ./rzn/fsp/src/r_ether_selector/r_ether_selector.o
                               0x28c3 (size before relaxing)
 .debug_str     0x00016963     0x970c ./rzn/fsp/src/r_ether_phy/r_ether_phy.o
                              0x106d9 (size before relaxing)
 .debug_str     0x0002006f      0x163 ./rzn/fsp/src/r_cmt/r_cmt.o
                               0x325f (size before relaxing)
 .debug_str     0x000201d2       0x5d ./rzn/fsp/src/bsp/mcu/rzn2l/bsp_irq_sense.o
                                0x25c (size before relaxing)
 .debug_str     0x0002022f       0x52 ./rzn/fsp/src/bsp/mcu/all/cr/bsp_delay_core.o
                                0x251 (size before relaxing)
 .debug_str     0x00020281     0x24fd ./rzn/fsp/src/bsp/mcu/all/cr/bsp_irq_core.o
                               0x2b6d (size before relaxing)
 .debug_str     0x0002277e      0x386 ./rzn/fsp/src/bsp/mcu/all/bsp_cache.o
                                0x5da (size before relaxing)
 .debug_str     0x00022b04       0xf0 ./rzn/fsp/src/bsp/mcu/all/bsp_clocks.o
                                0x934 (size before relaxing)
 .debug_str     0x00022bf4       0xef ./rzn/fsp/src/bsp/mcu/all/bsp_common.o
                               0x1c99 (size before relaxing)
 .debug_str     0x00022ce3       0xa1 ./rzn/fsp/src/bsp/mcu/all/bsp_delay.o
                                0x365 (size before relaxing)
 .debug_str     0x00022d84       0x24 ./rzn/fsp/src/bsp/mcu/all/bsp_io.o
                                0x23a (size before relaxing)
 .debug_str     0x00022da8       0x25 ./rzn/fsp/src/bsp/mcu/all/bsp_irq.o
                                0x22d (size before relaxing)
 .debug_str     0x00022dcd       0x77 ./rzn/fsp/src/bsp/mcu/all/bsp_register_protection.o
                                0x392 (size before relaxing)
 .debug_str     0x00022e44       0x9e ./rzn/fsp/src/bsp/mcu/all/bsp_reset.o
                                0xaf5 (size before relaxing)
 .debug_str     0x00022ee2       0x8f ./rzn/fsp/src/bsp/mcu/all/bsp_sbrk.o
                                0x29c (size before relaxing)
 .debug_str     0x00022f71      0x187 ./rzn/fsp/src/bsp/cmsis/Device/RENESAS/Source/cr/startup_core.o
                                0x384 (size before relaxing)
 .debug_str     0x000230f8      0x1bd ./rzn/fsp/src/bsp/cmsis/Device/RENESAS/Source/cr/system_core.o
                                0x49f (size before relaxing)
 .debug_str     0x000232b5       0xeb ./rzn/fsp/src/bsp/cmsis/Device/RENESAS/Source/startup.o
                                0x400 (size before relaxing)
 .debug_str     0x000233a0      0x3af ./rzn/fsp/src/bsp/cmsis/Device/RENESAS/Source/system.o
                                0xc95 (size before relaxing)

.comment        0x00000000       0x45
 .comment       0x00000000       0x45 ./src/ethercat/renesas/sampleappl.o
                                 0x46 (size before relaxing)
 .comment       0x00000045       0x46 ./src/ethercat/renesas/samplecia402.o
 .comment       0x00000045       0x46 ./src/ethercat/renesas/samplefoe.o
 .comment       0x00000045       0x46 ./src/ethercat/renesas/sampleios.o
 .comment       0x00000045       0x46 ./src/ethercat/beckhoff/Src/bootmode.o
 .comment       0x00000045       0x46 ./src/ethercat/beckhoff/Src/cia402appl.o
 .comment       0x00000045       0x46 ./src/ethercat/beckhoff/Src/coeappl.o
 .comment       0x00000045       0x46 ./src/ethercat/beckhoff/Src/ecatappl.o
 .comment       0x00000045       0x46 ./src/ethercat/beckhoff/Src/ecatcoe.o
 .comment       0x00000045       0x46 ./src/ethercat/beckhoff/Src/ecatfoe.o
 .comment       0x00000045       0x46 ./src/ethercat/beckhoff/Src/ecatslv.o
 .comment       0x00000045       0x46 ./src/ethercat/beckhoff/Src/foeappl.o
 .comment       0x00000045       0x46 ./src/ethercat/beckhoff/Src/mailbox.o
 .comment       0x00000045       0x46 ./src/ethercat/beckhoff/Src/objdef.o
 .comment       0x00000045       0x46 ./src/ethercat/beckhoff/Src/sdoserv.o
 .comment       0x00000045       0x46 ./src/common/bank_detection.o
 .comment       0x00000045       0x46 ./src/common/bsp_r52_global_counter.o
 .comment       0x00000045       0x46 ./src/common/circular_queue.o
 .comment       0x00000045       0x46 ./src/common/crc32_table.o
 .comment       0x00000045       0x46 ./src/common/sbl_boot_params.o
 .comment       0x00000045       0x46 ./src/hal_entry.o
 .comment       0x00000045       0x46 ./src/syscall.o
 .comment       0x00000045       0x46 ./rzn_gen/common_data.o
 .comment       0x00000045       0x46 ./rzn_gen/hal_data.o
 .comment       0x00000045       0x46 ./rzn_gen/main.o
 .comment       0x00000045       0x46 ./rzn_gen/pin_data.o
 .comment       0x00000045       0x46 ./rzn_gen/vector_data.o
 .comment       0x00000045       0x46 ./rzn/fsp/src/rm_ethercat_ssc_port/rm_ethercat_ssc_port.o
 .comment       0x00000045       0x46 ./rzn/fsp/src/r_xspi_qspi/r_xspi_qspi.o
 .comment       0x00000045       0x46 ./rzn/fsp/src/r_sci_uart/r_sci_uart.o
 .comment       0x00000045       0x46 ./rzn/fsp/src/r_ioport/r_ioport.o
 .comment       0x00000045       0x46 ./rzn/fsp/src/r_ether_selector/r_ether_selector.o
 .comment       0x00000045       0x46 ./rzn/fsp/src/r_ether_phy/r_ether_phy.o
 .comment       0x00000045       0x46 ./rzn/fsp/src/r_cmt/r_cmt.o
 .comment       0x00000045       0x46 ./rzn/fsp/src/bsp/mcu/rzn2l/bsp_irq_sense.o
 .comment       0x00000045       0x46 ./rzn/fsp/src/bsp/mcu/all/cr/bsp_delay_core.o
 .comment       0x00000045       0x46 ./rzn/fsp/src/bsp/mcu/all/cr/bsp_irq_core.o
 .comment       0x00000045       0x46 ./rzn/fsp/src/bsp/mcu/all/bsp_cache.o
 .comment       0x00000045       0x46 ./rzn/fsp/src/bsp/mcu/all/bsp_clocks.o
 .comment       0x00000045       0x46 ./rzn/fsp/src/bsp/mcu/all/bsp_common.o
 .comment       0x00000045       0x46 ./rzn/fsp/src/bsp/mcu/all/bsp_delay.o
 .comment       0x00000045       0x46 ./rzn/fsp/src/bsp/mcu/all/bsp_io.o
 .comment       0x00000045       0x46 ./rzn/fsp/src/bsp/mcu/all/bsp_irq.o
 .comment       0x00000045       0x46 ./rzn/fsp/src/bsp/mcu/all/bsp_register_protection.o
 .comment       0x00000045       0x46 ./rzn/fsp/src/bsp/mcu/all/bsp_reset.o
 .comment       0x00000045       0x46 ./rzn/fsp/src/bsp/mcu/all/bsp_sbrk.o
 .comment       0x00000045       0x46 ./rzn/fsp/src/bsp/cmsis/Device/RENESAS/Source/cr/startup_core.o
 .comment       0x00000045       0x46 ./rzn/fsp/src/bsp/cmsis/Device/RENESAS/Source/cr/system_core.o
 .comment       0x00000045       0x46 ./rzn/fsp/src/bsp/cmsis/Device/RENESAS/Source/startup.o
 .comment       0x00000045       0x46 ./rzn/fsp/src/bsp/cmsis/Device/RENESAS/Source/system.o

.ARM.attributes
                0x00000000       0x37
 .ARM.attributes
                0x00000000       0x39 ./src/ethercat/renesas/sampleappl.o
 .ARM.attributes
                0x00000039       0x39 ./src/ethercat/renesas/samplecia402.o
 .ARM.attributes
                0x00000072       0x39 ./src/ethercat/renesas/samplefoe.o
 .ARM.attributes
                0x000000ab       0x39 ./src/ethercat/renesas/sampleios.o
 .ARM.attributes
                0x000000e4       0x39 ./src/ethercat/beckhoff/Src/bootmode.o
 .ARM.attributes
                0x0000011d       0x39 ./src/ethercat/beckhoff/Src/cia402appl.o
 .ARM.attributes
                0x00000156       0x39 ./src/ethercat/beckhoff/Src/coeappl.o
 .ARM.attributes
                0x0000018f       0x39 ./src/ethercat/beckhoff/Src/ecatappl.o
 .ARM.attributes
                0x000001c8       0x39 ./src/ethercat/beckhoff/Src/ecatcoe.o
 .ARM.attributes
                0x00000201       0x39 ./src/ethercat/beckhoff/Src/ecatfoe.o
 .ARM.attributes
                0x0000023a       0x39 ./src/ethercat/beckhoff/Src/ecatslv.o
 .ARM.attributes
                0x00000273       0x39 ./src/ethercat/beckhoff/Src/foeappl.o
 .ARM.attributes
                0x000002ac       0x39 ./src/ethercat/beckhoff/Src/mailbox.o
 .ARM.attributes
                0x000002e5       0x39 ./src/ethercat/beckhoff/Src/objdef.o
 .ARM.attributes
                0x0000031e       0x39 ./src/ethercat/beckhoff/Src/sdoserv.o
 .ARM.attributes
                0x00000357       0x39 ./src/common/bank_detection.o
 .ARM.attributes
                0x00000390       0x39 ./src/common/bsp_r52_global_counter.o
 .ARM.attributes
                0x000003c9       0x39 ./src/common/circular_queue.o
 .ARM.attributes
                0x00000402       0x39 ./src/common/crc32_table.o
 .ARM.attributes
                0x0000043b       0x39 ./src/common/sbl_boot_params.o
 .ARM.attributes
                0x00000474       0x39 ./src/hal_entry.o
 .ARM.attributes
                0x000004ad       0x39 ./src/syscall.o
 .ARM.attributes
                0x000004e6       0x39 ./rzn_gen/common_data.o
 .ARM.attributes
                0x0000051f       0x39 ./rzn_gen/hal_data.o
 .ARM.attributes
                0x00000558       0x39 ./rzn_gen/main.o
 .ARM.attributes
                0x00000591       0x39 ./rzn_gen/pin_data.o
 .ARM.attributes
                0x000005ca       0x39 ./rzn_gen/vector_data.o
 .ARM.attributes
                0x00000603       0x39 ./rzn/fsp/src/rm_ethercat_ssc_port/rm_ethercat_ssc_port.o
 .ARM.attributes
                0x0000063c       0x39 ./rzn/fsp/src/r_xspi_qspi/r_xspi_qspi.o
 .ARM.attributes
                0x00000675       0x39 ./rzn/fsp/src/r_sci_uart/r_sci_uart.o
 .ARM.attributes
                0x000006ae       0x39 ./rzn/fsp/src/r_ioport/r_ioport.o
 .ARM.attributes
                0x000006e7       0x39 ./rzn/fsp/src/r_ether_selector/r_ether_selector.o
 .ARM.attributes
                0x00000720       0x39 ./rzn/fsp/src/r_ether_phy/r_ether_phy.o
 .ARM.attributes
                0x00000759       0x39 ./rzn/fsp/src/r_cmt/r_cmt.o
 .ARM.attributes
                0x00000792       0x39 ./rzn/fsp/src/bsp/mcu/rzn2l/bsp_irq_sense.o
 .ARM.attributes
                0x000007cb       0x39 ./rzn/fsp/src/bsp/mcu/all/cr/bsp_delay_core.o
 .ARM.attributes
                0x00000804       0x39 ./rzn/fsp/src/bsp/mcu/all/cr/bsp_irq_core.o
 .ARM.attributes
                0x0000083d       0x39 ./rzn/fsp/src/bsp/mcu/all/bsp_cache.o
 .ARM.attributes
                0x00000876       0x39 ./rzn/fsp/src/bsp/mcu/all/bsp_clocks.o
 .ARM.attributes
                0x000008af       0x39 ./rzn/fsp/src/bsp/mcu/all/bsp_common.o
 .ARM.attributes
                0x000008e8       0x39 ./rzn/fsp/src/bsp/mcu/all/bsp_delay.o
 .ARM.attributes
                0x00000921       0x39 ./rzn/fsp/src/bsp/mcu/all/bsp_io.o
 .ARM.attributes
                0x0000095a       0x39 ./rzn/fsp/src/bsp/mcu/all/bsp_irq.o
 .ARM.attributes
                0x00000993       0x39 ./rzn/fsp/src/bsp/mcu/all/bsp_register_protection.o
 .ARM.attributes
                0x000009cc       0x39 ./rzn/fsp/src/bsp/mcu/all/bsp_reset.o
 .ARM.attributes
                0x00000a05       0x39 ./rzn/fsp/src/bsp/mcu/all/bsp_sbrk.o
 .ARM.attributes
                0x00000a3e       0x39 ./rzn/fsp/src/bsp/cmsis/Device/RENESAS/Source/cr/startup_core.o
 .ARM.attributes
                0x00000a77       0x39 ./rzn/fsp/src/bsp/cmsis/Device/RENESAS/Source/cr/system_core.o
 .ARM.attributes
                0x00000ab0       0x39 ./rzn/fsp/src/bsp/cmsis/Device/RENESAS/Source/startup.o
 .ARM.attributes
                0x00000ae9       0x39 ./rzn/fsp/src/bsp/cmsis/Device/RENESAS/Source/system.o
 .ARM.attributes
                0x00000b22       0x1b d:/program files/gcc/arm gnu toolchain arm-none-eabi/12.2 rel1/bin/../lib/gcc/arm-none-eabi/12.2.1/thumb/v7+fp/hard\libgcc.a(_aeabi_uldivmod.o)
 .ARM.attributes
                0x00000b3d       0x2d d:/program files/gcc/arm gnu toolchain arm-none-eabi/12.2 rel1/bin/../lib/gcc/arm-none-eabi/12.2.1/thumb/v7+fp/hard\libgcc.a(_udivmoddi4.o)
 .ARM.attributes
                0x00000b6a       0x1b d:/program files/gcc/arm gnu toolchain arm-none-eabi/12.2 rel1/bin/../lib/gcc/arm-none-eabi/12.2.1/thumb/v7+fp/hard\libgcc.a(_dvmd_tls.o)
 .ARM.attributes
                0x00000b85       0x2d d:/program files/gcc/arm gnu toolchain arm-none-eabi/12.2 rel1/bin/../lib/gcc/arm-none-eabi/12.2.1/thumb/v7+fp/hard\libg_nano.a(libc_a-malloc.o)
 .ARM.attributes
                0x00000bb2       0x2d d:/program files/gcc/arm gnu toolchain arm-none-eabi/12.2 rel1/bin/../lib/gcc/arm-none-eabi/12.2.1/thumb/v7+fp/hard\libg_nano.a(libc_a-mallocr.o)
 .ARM.attributes
                0x00000bdf       0x2d d:/program files/gcc/arm gnu toolchain arm-none-eabi/12.2 rel1/bin/../lib/gcc/arm-none-eabi/12.2.1/thumb/v7+fp/hard\libg_nano.a(libc_a-mlock.o)
 .ARM.attributes
                0x00000c0c       0x2d d:/program files/gcc/arm gnu toolchain arm-none-eabi/12.2 rel1/bin/../lib/gcc/arm-none-eabi/12.2.1/thumb/v7+fp/hard\libg_nano.a(libc_a-nano-vfprintf_float.o)
 .ARM.attributes
                0x00000c39       0x2d d:/program files/gcc/arm gnu toolchain arm-none-eabi/12.2 rel1/bin/../lib/gcc/arm-none-eabi/12.2.1/thumb/v7+fp/hard\libg_nano.a(libc_a-nano-vfprintf_i.o)
 .ARM.attributes
                0x00000c66       0x2d d:/program files/gcc/arm gnu toolchain arm-none-eabi/12.2 rel1/bin/../lib/gcc/arm-none-eabi/12.2.1/thumb/v7+fp/hard\libg_nano.a(libc_a-printf.o)
 .ARM.attributes
                0x00000c93       0x2d d:/program files/gcc/arm gnu toolchain arm-none-eabi/12.2 rel1/bin/../lib/gcc/arm-none-eabi/12.2.1/thumb/v7+fp/hard\libg_nano.a(libc_a-puts.o)
 .ARM.attributes
                0x00000cc0       0x2d d:/program files/gcc/arm gnu toolchain arm-none-eabi/12.2 rel1/bin/../lib/gcc/arm-none-eabi/12.2.1/thumb/v7+fp/hard\libg_nano.a(libc_a-wbuf.o)
 .ARM.attributes
                0x00000ced       0x2d d:/program files/gcc/arm gnu toolchain arm-none-eabi/12.2 rel1/bin/../lib/gcc/arm-none-eabi/12.2.1/thumb/v7+fp/hard\libg_nano.a(libc_a-wsetup.o)
 .ARM.attributes
                0x00000d1a       0x2d d:/program files/gcc/arm gnu toolchain arm-none-eabi/12.2 rel1/bin/../lib/gcc/arm-none-eabi/12.2.1/thumb/v7+fp/hard\libg_nano.a(libc_a-memcmp.o)
 .ARM.attributes
                0x00000d47       0x2d d:/program files/gcc/arm gnu toolchain arm-none-eabi/12.2 rel1/bin/../lib/gcc/arm-none-eabi/12.2.1/thumb/v7+fp/hard\libg_nano.a(libc_a-memset.o)
 .ARM.attributes
                0x00000d74       0x2d d:/program files/gcc/arm gnu toolchain arm-none-eabi/12.2 rel1/bin/../lib/gcc/arm-none-eabi/12.2.1/thumb/v7+fp/hard\libg_nano.a(libc_a-localeconv.o)
 .ARM.attributes
                0x00000da1       0x2d d:/program files/gcc/arm gnu toolchain arm-none-eabi/12.2 rel1/bin/../lib/gcc/arm-none-eabi/12.2.1/thumb/v7+fp/hard\libg_nano.a(libc_a-impure.o)
 .ARM.attributes
                0x00000dce       0x2d d:/program files/gcc/arm gnu toolchain arm-none-eabi/12.2 rel1/bin/../lib/gcc/arm-none-eabi/12.2.1/thumb/v7+fp/hard\libg_nano.a(libc_a-sbrkr.o)
 .ARM.attributes
                0x00000dfb       0x2d d:/program files/gcc/arm gnu toolchain arm-none-eabi/12.2 rel1/bin/../lib/gcc/arm-none-eabi/12.2.1/thumb/v7+fp/hard\libg_nano.a(libc_a-errno.o)
 .ARM.attributes
                0x00000e28       0x2d d:/program files/gcc/arm gnu toolchain arm-none-eabi/12.2 rel1/bin/../lib/gcc/arm-none-eabi/12.2.1/thumb/v7+fp/hard\libg_nano.a(libc_a-lock.o)
 .ARM.attributes
                0x00000e55       0x2d d:/program files/gcc/arm gnu toolchain arm-none-eabi/12.2 rel1/bin/../lib/gcc/arm-none-eabi/12.2.1/thumb/v7+fp/hard\libg_nano.a(libc_a-memchr-stub.o)
 .ARM.attributes
                0x00000e82       0x2d d:/program files/gcc/arm gnu toolchain arm-none-eabi/12.2 rel1/bin/../lib/gcc/arm-none-eabi/12.2.1/thumb/v7+fp/hard\libg_nano.a(libc_a-memcpy-stub.o)
 .ARM.attributes
                0x00000eaf       0x17 d:/program files/gcc/arm gnu toolchain arm-none-eabi/12.2 rel1/bin/../lib/gcc/arm-none-eabi/12.2.1/thumb/v7+fp/hard\libg_nano.a(libc_a-strlen.o)
 .ARM.attributes
                0x00000ec6       0x2d d:/program files/gcc/arm gnu toolchain arm-none-eabi/12.2 rel1/bin/../lib/gcc/arm-none-eabi/12.2.1/thumb/v7+fp/hard\libg_nano.a(libc_a-dtoa.o)
 .ARM.attributes
                0x00000ef3       0x2d d:/program files/gcc/arm gnu toolchain arm-none-eabi/12.2 rel1/bin/../lib/gcc/arm-none-eabi/12.2.1/thumb/v7+fp/hard\libg_nano.a(libc_a-freer.o)
 .ARM.attributes
                0x00000f20       0x2d d:/program files/gcc/arm gnu toolchain arm-none-eabi/12.2 rel1/bin/../lib/gcc/arm-none-eabi/12.2.1/thumb/v7+fp/hard\libg_nano.a(libc_a-mprec.o)
 .ARM.attributes
                0x00000f4d       0x2d d:/program files/gcc/arm gnu toolchain arm-none-eabi/12.2 rel1/bin/../lib/gcc/arm-none-eabi/12.2.1/thumb/v7+fp/hard\libg_nano.a(libc_a-nano-vfprintf.o)
 .ARM.attributes
                0x00000f7a       0x2d d:/program files/gcc/arm gnu toolchain arm-none-eabi/12.2 rel1/bin/../lib/gcc/arm-none-eabi/12.2.1/thumb/v7+fp/hard\libg_nano.a(libc_a-fflush.o)
 .ARM.attributes
                0x00000fa7       0x2d d:/program files/gcc/arm gnu toolchain arm-none-eabi/12.2 rel1/bin/../lib/gcc/arm-none-eabi/12.2.1/thumb/v7+fp/hard\libg_nano.a(libc_a-findfp.o)
 .ARM.attributes
                0x00000fd4       0x2d d:/program files/gcc/arm gnu toolchain arm-none-eabi/12.2 rel1/bin/../lib/gcc/arm-none-eabi/12.2.1/thumb/v7+fp/hard\libg_nano.a(libc_a-fwalk.o)
 .ARM.attributes
                0x00001001       0x2d d:/program files/gcc/arm gnu toolchain arm-none-eabi/12.2 rel1/bin/../lib/gcc/arm-none-eabi/12.2.1/thumb/v7+fp/hard\libg_nano.a(libc_a-makebuf.o)
 .ARM.attributes
                0x0000102e       0x2d d:/program files/gcc/arm gnu toolchain arm-none-eabi/12.2 rel1/bin/../lib/gcc/arm-none-eabi/12.2.1/thumb/v7+fp/hard\libg_nano.a(libc_a-stdio.o)
 .ARM.attributes
                0x0000105b       0x2d d:/program files/gcc/arm gnu toolchain arm-none-eabi/12.2 rel1/bin/../lib/gcc/arm-none-eabi/12.2.1/thumb/v7+fp/hard\libg_nano.a(libc_a-locale.o)
 .ARM.attributes
                0x00001088       0x2d d:/program files/gcc/arm gnu toolchain arm-none-eabi/12.2 rel1/bin/../lib/gcc/arm-none-eabi/12.2.1/thumb/v7+fp/hard\libg_nano.a(libc_a-closer.o)
 .ARM.attributes
                0x000010b5       0x2d d:/program files/gcc/arm gnu toolchain arm-none-eabi/12.2 rel1/bin/../lib/gcc/arm-none-eabi/12.2.1/thumb/v7+fp/hard\libg_nano.a(libc_a-reent.o)
 .ARM.attributes
                0x000010e2       0x2d d:/program files/gcc/arm gnu toolchain arm-none-eabi/12.2 rel1/bin/../lib/gcc/arm-none-eabi/12.2.1/thumb/v7+fp/hard\libg_nano.a(libc_a-fstatr.o)
 .ARM.attributes
                0x0000110f       0x2d d:/program files/gcc/arm gnu toolchain arm-none-eabi/12.2 rel1/bin/../lib/gcc/arm-none-eabi/12.2.1/thumb/v7+fp/hard\libg_nano.a(libc_a-isattyr.o)
 .ARM.attributes
                0x0000113c       0x2d d:/program files/gcc/arm gnu toolchain arm-none-eabi/12.2 rel1/bin/../lib/gcc/arm-none-eabi/12.2.1/thumb/v7+fp/hard\libg_nano.a(libc_a-lseekr.o)
 .ARM.attributes
                0x00001169       0x2d d:/program files/gcc/arm gnu toolchain arm-none-eabi/12.2 rel1/bin/../lib/gcc/arm-none-eabi/12.2.1/thumb/v7+fp/hard\libg_nano.a(libc_a-readr.o)
 .ARM.attributes
                0x00001196       0x2d d:/program files/gcc/arm gnu toolchain arm-none-eabi/12.2 rel1/bin/../lib/gcc/arm-none-eabi/12.2.1/thumb/v7+fp/hard\libg_nano.a(libc_a-writer.o)
 .ARM.attributes
                0x000011c3       0x2d d:/program files/gcc/arm gnu toolchain arm-none-eabi/12.2 rel1/bin/../lib/gcc/arm-none-eabi/12.2.1/thumb/v7+fp/hard\libg_nano.a(libc_a-assert.o)
 .ARM.attributes
                0x000011f0       0x2d d:/program files/gcc/arm gnu toolchain arm-none-eabi/12.2 rel1/bin/../lib/gcc/arm-none-eabi/12.2.1/thumb/v7+fp/hard\libg_nano.a(libc_a-callocr.o)
 .ARM.attributes
                0x0000121d       0x2d d:/program files/gcc/arm gnu toolchain arm-none-eabi/12.2 rel1/bin/../lib/gcc/arm-none-eabi/12.2.1/thumb/v7+fp/hard\libg_nano.a(libc_a-mbtowc_r.o)
 .ARM.attributes
                0x0000124a       0x2d d:/program files/gcc/arm gnu toolchain arm-none-eabi/12.2 rel1/bin/../lib/gcc/arm-none-eabi/12.2.1/thumb/v7+fp/hard\libg_nano.a(libc_a-wctomb_r.o)
 .ARM.attributes
                0x00001277       0x2d d:/program files/gcc/arm gnu toolchain arm-none-eabi/12.2 rel1/bin/../lib/gcc/arm-none-eabi/12.2.1/thumb/v7+fp/hard\libg_nano.a(libc_a-ctype_.o)
 .ARM.attributes
                0x000012a4       0x2d d:/program files/gcc/arm gnu toolchain arm-none-eabi/12.2 rel1/bin/../lib/gcc/arm-none-eabi/12.2.1/thumb/v7+fp/hard\libg_nano.a(libc_a-fprintf.o)
 .ARM.attributes
                0x000012d1       0x2d d:/program files/gcc/arm gnu toolchain arm-none-eabi/12.2 rel1/bin/../lib/gcc/arm-none-eabi/12.2.1/thumb/v7+fp/hard\libg_nano.a(libc_a-abort.o)
 .ARM.attributes
                0x000012fe       0x2d d:/program files/gcc/arm gnu toolchain arm-none-eabi/12.2 rel1/bin/../lib/gcc/arm-none-eabi/12.2.1/thumb/v7+fp/hard\libg_nano.a(libc_a-signal.o)
 .ARM.attributes
                0x0000132b       0x2d d:/program files/gcc/arm gnu toolchain arm-none-eabi/12.2 rel1/bin/../lib/gcc/arm-none-eabi/12.2.1/thumb/v7+fp/hard\libg_nano.a(libc_a-signalr.o)
 .ARM.attributes
                0x00001358       0x1b d:/program files/gcc/arm gnu toolchain arm-none-eabi/12.2 rel1/bin/../lib/gcc/arm-none-eabi/12.2.1/thumb/v7+fp/hard\libgcc.a(_udivsi3.o)
 .ARM.attributes
                0x00001373       0x1b d:/program files/gcc/arm gnu toolchain arm-none-eabi/12.2 rel1/bin/../lib/gcc/arm-none-eabi/12.2.1/thumb/v7+fp/hard\libgcc.a(_divsi3.o)

.debug_frame    0x00000000     0x3350
 .debug_frame   0x00000000      0x15c ./src/ethercat/renesas/sampleappl.o
 .debug_frame   0x0000015c      0x154 ./src/ethercat/renesas/samplecia402.o
 .debug_frame   0x000002b0       0x68 ./src/ethercat/renesas/samplefoe.o
 .debug_frame   0x00000318      0x104 ./src/ethercat/beckhoff/Src/bootmode.o
 .debug_frame   0x0000041c       0xec ./src/ethercat/beckhoff/Src/cia402appl.o
 .debug_frame   0x00000508      0x11c ./src/ethercat/beckhoff/Src/coeappl.o
 .debug_frame   0x00000624      0x18c ./src/ethercat/beckhoff/Src/ecatappl.o
 .debug_frame   0x000007b0       0x50 ./src/ethercat/beckhoff/Src/ecatcoe.o
 .debug_frame   0x00000800       0x54 ./src/ethercat/beckhoff/Src/ecatfoe.o
 .debug_frame   0x00000854      0x20c ./src/ethercat/beckhoff/Src/ecatslv.o
 .debug_frame   0x00000a60       0xb0 ./src/ethercat/beckhoff/Src/foeappl.o
 .debug_frame   0x00000b10      0x160 ./src/ethercat/beckhoff/Src/mailbox.o
 .debug_frame   0x00000c70      0x17c ./src/ethercat/beckhoff/Src/objdef.o
 .debug_frame   0x00000dec       0xd0 ./src/ethercat/beckhoff/Src/sdoserv.o
 .debug_frame   0x00000ebc       0x70 ./src/common/bank_detection.o
 .debug_frame   0x00000f2c       0x20 ./src/common/bsp_r52_global_counter.o
 .debug_frame   0x00000f4c       0xcc ./src/common/circular_queue.o
 .debug_frame   0x00001018       0xb4 ./src/common/crc32_table.o
 .debug_frame   0x000010cc      0x154 ./src/common/sbl_boot_params.o
 .debug_frame   0x00001220       0x84 ./src/hal_entry.o
 .debug_frame   0x000012a4      0x190 ./src/syscall.o
 .debug_frame   0x00001434       0x20 ./rzn_gen/common_data.o
 .debug_frame   0x00001454       0x28 ./rzn_gen/hal_data.o
 .debug_frame   0x0000147c       0x28 ./rzn_gen/main.o
 .debug_frame   0x000014a4      0x194 ./rzn/fsp/src/rm_ethercat_ssc_port/rm_ethercat_ssc_port.o
 .debug_frame   0x00001638      0x1b0 ./rzn/fsp/src/r_xspi_qspi/r_xspi_qspi.o
 .debug_frame   0x000017e8      0x210 ./rzn/fsp/src/r_sci_uart/r_sci_uart.o
 .debug_frame   0x000019f8      0x17c ./rzn/fsp/src/r_ioport/r_ioport.o
 .debug_frame   0x00001b74       0x68 ./rzn/fsp/src/r_ether_selector/r_ether_selector.o
 .debug_frame   0x00001bdc      0x11c ./rzn/fsp/src/r_ether_phy/r_ether_phy.o
 .debug_frame   0x00001cf8      0x13c ./rzn/fsp/src/r_cmt/r_cmt.o
 .debug_frame   0x00001e34       0x20 ./rzn/fsp/src/bsp/mcu/all/cr/bsp_delay_core.o
 .debug_frame   0x00001e54       0x38 ./rzn/fsp/src/bsp/mcu/all/cr/bsp_irq_core.o
 .debug_frame   0x00001e8c      0x124 ./rzn/fsp/src/bsp/mcu/all/bsp_cache.o
 .debug_frame   0x00001fb0       0x5c ./rzn/fsp/src/bsp/mcu/all/bsp_clocks.o
 .debug_frame   0x0000200c       0x30 ./rzn/fsp/src/bsp/mcu/all/bsp_common.o
 .debug_frame   0x0000203c       0x40 ./rzn/fsp/src/bsp/mcu/all/bsp_delay.o
 .debug_frame   0x0000207c       0x28 ./rzn/fsp/src/bsp/mcu/all/bsp_irq.o
 .debug_frame   0x000020a4       0x30 ./rzn/fsp/src/bsp/mcu/all/bsp_register_protection.o
 .debug_frame   0x000020d4       0x78 ./rzn/fsp/src/bsp/mcu/all/bsp_reset.o
 .debug_frame   0x0000214c       0x28 ./rzn/fsp/src/bsp/mcu/all/bsp_sbrk.o
 .debug_frame   0x00002174       0x88 ./rzn/fsp/src/bsp/cmsis/Device/RENESAS/Source/cr/startup_core.o
 .debug_frame   0x000021fc       0x6c ./rzn/fsp/src/bsp/cmsis/Device/RENESAS/Source/cr/system_core.o
 .debug_frame   0x00002268       0x28 ./rzn/fsp/src/bsp/cmsis/Device/RENESAS/Source/startup.o
 .debug_frame   0x00002290      0x118 ./rzn/fsp/src/bsp/cmsis/Device/RENESAS/Source/system.o
 .debug_frame   0x000023a8       0x2c d:/program files/gcc/arm gnu toolchain arm-none-eabi/12.2 rel1/bin/../lib/gcc/arm-none-eabi/12.2.1/thumb/v7+fp/hard\libgcc.a(_aeabi_uldivmod.o)
 .debug_frame   0x000023d4       0x34 d:/program files/gcc/arm gnu toolchain arm-none-eabi/12.2 rel1/bin/../lib/gcc/arm-none-eabi/12.2.1/thumb/v7+fp/hard\libgcc.a(_udivmoddi4.o)
 .debug_frame   0x00002408       0x30 d:/program files/gcc/arm gnu toolchain arm-none-eabi/12.2 rel1/bin/../lib/gcc/arm-none-eabi/12.2.1/thumb/v7+fp/hard\libg_nano.a(libc_a-malloc.o)
 .debug_frame   0x00002438       0x4c d:/program files/gcc/arm gnu toolchain arm-none-eabi/12.2 rel1/bin/../lib/gcc/arm-none-eabi/12.2.1/thumb/v7+fp/hard\libg_nano.a(libc_a-mallocr.o)
 .debug_frame   0x00002484       0x30 d:/program files/gcc/arm gnu toolchain arm-none-eabi/12.2 rel1/bin/../lib/gcc/arm-none-eabi/12.2.1/thumb/v7+fp/hard\libg_nano.a(libc_a-mlock.o)
 .debug_frame   0x000024b4       0xa0 d:/program files/gcc/arm gnu toolchain arm-none-eabi/12.2 rel1/bin/../lib/gcc/arm-none-eabi/12.2.1/thumb/v7+fp/hard\libg_nano.a(libc_a-nano-vfprintf_float.o)
 .debug_frame   0x00002554       0x64 d:/program files/gcc/arm gnu toolchain arm-none-eabi/12.2 rel1/bin/../lib/gcc/arm-none-eabi/12.2.1/thumb/v7+fp/hard\libg_nano.a(libc_a-nano-vfprintf_i.o)
 .debug_frame   0x000025b8       0x6c d:/program files/gcc/arm gnu toolchain arm-none-eabi/12.2 rel1/bin/../lib/gcc/arm-none-eabi/12.2.1/thumb/v7+fp/hard\libg_nano.a(libc_a-printf.o)
 .debug_frame   0x00002624       0x3c d:/program files/gcc/arm gnu toolchain arm-none-eabi/12.2 rel1/bin/../lib/gcc/arm-none-eabi/12.2.1/thumb/v7+fp/hard\libg_nano.a(libc_a-puts.o)
 .debug_frame   0x00002660       0x40 d:/program files/gcc/arm gnu toolchain arm-none-eabi/12.2 rel1/bin/../lib/gcc/arm-none-eabi/12.2.1/thumb/v7+fp/hard\libg_nano.a(libc_a-wbuf.o)
 .debug_frame   0x000026a0       0x2c d:/program files/gcc/arm gnu toolchain arm-none-eabi/12.2 rel1/bin/../lib/gcc/arm-none-eabi/12.2.1/thumb/v7+fp/hard\libg_nano.a(libc_a-wsetup.o)
 .debug_frame   0x000026cc       0x28 d:/program files/gcc/arm gnu toolchain arm-none-eabi/12.2 rel1/bin/../lib/gcc/arm-none-eabi/12.2.1/thumb/v7+fp/hard\libg_nano.a(libc_a-memcmp.o)
 .debug_frame   0x000026f4       0x20 d:/program files/gcc/arm gnu toolchain arm-none-eabi/12.2 rel1/bin/../lib/gcc/arm-none-eabi/12.2.1/thumb/v7+fp/hard\libg_nano.a(libc_a-memset.o)
 .debug_frame   0x00002714       0x40 d:/program files/gcc/arm gnu toolchain arm-none-eabi/12.2 rel1/bin/../lib/gcc/arm-none-eabi/12.2.1/thumb/v7+fp/hard\libg_nano.a(libc_a-localeconv.o)
 .debug_frame   0x00002754       0x2c d:/program files/gcc/arm gnu toolchain arm-none-eabi/12.2 rel1/bin/../lib/gcc/arm-none-eabi/12.2.1/thumb/v7+fp/hard\libg_nano.a(libc_a-sbrkr.o)
 .debug_frame   0x00002780       0x20 d:/program files/gcc/arm gnu toolchain arm-none-eabi/12.2 rel1/bin/../lib/gcc/arm-none-eabi/12.2.1/thumb/v7+fp/hard\libg_nano.a(libc_a-errno.o)
 .debug_frame   0x000027a0       0xb0 d:/program files/gcc/arm gnu toolchain arm-none-eabi/12.2 rel1/bin/../lib/gcc/arm-none-eabi/12.2.1/thumb/v7+fp/hard\libg_nano.a(libc_a-lock.o)
 .debug_frame   0x00002850       0x28 d:/program files/gcc/arm gnu toolchain arm-none-eabi/12.2 rel1/bin/../lib/gcc/arm-none-eabi/12.2.1/thumb/v7+fp/hard\libg_nano.a(libc_a-memchr-stub.o)
 .debug_frame   0x00002878       0x28 d:/program files/gcc/arm gnu toolchain arm-none-eabi/12.2 rel1/bin/../lib/gcc/arm-none-eabi/12.2.1/thumb/v7+fp/hard\libg_nano.a(libc_a-memcpy-stub.o)
 .debug_frame   0x000028a0       0x80 d:/program files/gcc/arm gnu toolchain arm-none-eabi/12.2 rel1/bin/../lib/gcc/arm-none-eabi/12.2.1/thumb/v7+fp/hard\libg_nano.a(libc_a-dtoa.o)
 .debug_frame   0x00002920       0x38 d:/program files/gcc/arm gnu toolchain arm-none-eabi/12.2 rel1/bin/../lib/gcc/arm-none-eabi/12.2.1/thumb/v7+fp/hard\libg_nano.a(libc_a-freer.o)
 .debug_frame   0x00002958      0x250 d:/program files/gcc/arm gnu toolchain arm-none-eabi/12.2 rel1/bin/../lib/gcc/arm-none-eabi/12.2.1/thumb/v7+fp/hard\libg_nano.a(libc_a-mprec.o)
 .debug_frame   0x00002ba8       0xa8 d:/program files/gcc/arm gnu toolchain arm-none-eabi/12.2 rel1/bin/../lib/gcc/arm-none-eabi/12.2.1/thumb/v7+fp/hard\libg_nano.a(libc_a-nano-vfprintf.o)
 .debug_frame   0x00002c50       0x5c d:/program files/gcc/arm gnu toolchain arm-none-eabi/12.2 rel1/bin/../lib/gcc/arm-none-eabi/12.2.1/thumb/v7+fp/hard\libg_nano.a(libc_a-fflush.o)
 .debug_frame   0x00002cac      0x144 d:/program files/gcc/arm gnu toolchain arm-none-eabi/12.2 rel1/bin/../lib/gcc/arm-none-eabi/12.2.1/thumb/v7+fp/hard\libg_nano.a(libc_a-findfp.o)
 .debug_frame   0x00002df0       0x34 d:/program files/gcc/arm gnu toolchain arm-none-eabi/12.2 rel1/bin/../lib/gcc/arm-none-eabi/12.2.1/thumb/v7+fp/hard\libg_nano.a(libc_a-fwalk.o)
 .debug_frame   0x00002e24       0x58 d:/program files/gcc/arm gnu toolchain arm-none-eabi/12.2 rel1/bin/../lib/gcc/arm-none-eabi/12.2.1/thumb/v7+fp/hard\libg_nano.a(libc_a-makebuf.o)
 .debug_frame   0x00002e7c       0x88 d:/program files/gcc/arm gnu toolchain arm-none-eabi/12.2 rel1/bin/../lib/gcc/arm-none-eabi/12.2.1/thumb/v7+fp/hard\libg_nano.a(libc_a-stdio.o)
 .debug_frame   0x00002f04       0x48 d:/program files/gcc/arm gnu toolchain arm-none-eabi/12.2 rel1/bin/../lib/gcc/arm-none-eabi/12.2.1/thumb/v7+fp/hard\libg_nano.a(libc_a-locale.o)
 .debug_frame   0x00002f4c       0x2c d:/program files/gcc/arm gnu toolchain arm-none-eabi/12.2 rel1/bin/../lib/gcc/arm-none-eabi/12.2.1/thumb/v7+fp/hard\libg_nano.a(libc_a-closer.o)
 .debug_frame   0x00002f78       0x38 d:/program files/gcc/arm gnu toolchain arm-none-eabi/12.2 rel1/bin/../lib/gcc/arm-none-eabi/12.2.1/thumb/v7+fp/hard\libg_nano.a(libc_a-reent.o)
 .debug_frame   0x00002fb0       0x2c d:/program files/gcc/arm gnu toolchain arm-none-eabi/12.2 rel1/bin/../lib/gcc/arm-none-eabi/12.2.1/thumb/v7+fp/hard\libg_nano.a(libc_a-fstatr.o)
 .debug_frame   0x00002fdc       0x2c d:/program files/gcc/arm gnu toolchain arm-none-eabi/12.2 rel1/bin/../lib/gcc/arm-none-eabi/12.2.1/thumb/v7+fp/hard\libg_nano.a(libc_a-isattyr.o)
 .debug_frame   0x00003008       0x2c d:/program files/gcc/arm gnu toolchain arm-none-eabi/12.2 rel1/bin/../lib/gcc/arm-none-eabi/12.2.1/thumb/v7+fp/hard\libg_nano.a(libc_a-lseekr.o)
 .debug_frame   0x00003034       0x2c d:/program files/gcc/arm gnu toolchain arm-none-eabi/12.2 rel1/bin/../lib/gcc/arm-none-eabi/12.2.1/thumb/v7+fp/hard\libg_nano.a(libc_a-readr.o)
 .debug_frame   0x00003060       0x2c d:/program files/gcc/arm gnu toolchain arm-none-eabi/12.2 rel1/bin/../lib/gcc/arm-none-eabi/12.2.1/thumb/v7+fp/hard\libg_nano.a(libc_a-writer.o)
 .debug_frame   0x0000308c       0x40 d:/program files/gcc/arm gnu toolchain arm-none-eabi/12.2 rel1/bin/../lib/gcc/arm-none-eabi/12.2.1/thumb/v7+fp/hard\libg_nano.a(libc_a-assert.o)
 .debug_frame   0x000030cc       0x2c d:/program files/gcc/arm gnu toolchain arm-none-eabi/12.2 rel1/bin/../lib/gcc/arm-none-eabi/12.2.1/thumb/v7+fp/hard\libg_nano.a(libc_a-callocr.o)
 .debug_frame   0x000030f8       0x48 d:/program files/gcc/arm gnu toolchain arm-none-eabi/12.2 rel1/bin/../lib/gcc/arm-none-eabi/12.2.1/thumb/v7+fp/hard\libg_nano.a(libc_a-mbtowc_r.o)
 .debug_frame   0x00003140       0x3c d:/program files/gcc/arm gnu toolchain arm-none-eabi/12.2 rel1/bin/../lib/gcc/arm-none-eabi/12.2.1/thumb/v7+fp/hard\libg_nano.a(libc_a-wctomb_r.o)
 .debug_frame   0x0000317c       0x64 d:/program files/gcc/arm gnu toolchain arm-none-eabi/12.2 rel1/bin/../lib/gcc/arm-none-eabi/12.2.1/thumb/v7+fp/hard\libg_nano.a(libc_a-fprintf.o)
 .debug_frame   0x000031e0       0x28 d:/program files/gcc/arm gnu toolchain arm-none-eabi/12.2 rel1/bin/../lib/gcc/arm-none-eabi/12.2.1/thumb/v7+fp/hard\libg_nano.a(libc_a-abort.o)
 .debug_frame   0x00003208       0xcc d:/program files/gcc/arm gnu toolchain arm-none-eabi/12.2 rel1/bin/../lib/gcc/arm-none-eabi/12.2.1/thumb/v7+fp/hard\libg_nano.a(libc_a-signal.o)
 .debug_frame   0x000032d4       0x3c d:/program files/gcc/arm gnu toolchain arm-none-eabi/12.2 rel1/bin/../lib/gcc/arm-none-eabi/12.2.1/thumb/v7+fp/hard\libg_nano.a(libc_a-signalr.o)
 .debug_frame   0x00003310       0x20 d:/program files/gcc/arm gnu toolchain arm-none-eabi/12.2 rel1/bin/../lib/gcc/arm-none-eabi/12.2.1/thumb/v7+fp/hard\libgcc.a(_udivsi3.o)
 .debug_frame   0x00003330       0x20 d:/program files/gcc/arm gnu toolchain arm-none-eabi/12.2 rel1/bin/../lib/gcc/arm-none-eabi/12.2.1/thumb/v7+fp/hard\libgcc.a(_divsi3.o)

.debug_line_str
                0x00000000      0x1ba
 .debug_line_str
                0x00000000       0xc6 d:/program files/gcc/arm gnu toolchain arm-none-eabi/12.2 rel1/bin/../lib/gcc/arm-none-eabi/12.2.1/thumb/v7+fp/hard\libgcc.a(_aeabi_uldivmod.o)
 .debug_line_str
                0x000000c6        0xc d:/program files/gcc/arm gnu toolchain arm-none-eabi/12.2 rel1/bin/../lib/gcc/arm-none-eabi/12.2.1/thumb/v7+fp/hard\libgcc.a(_dvmd_tls.o)
                                 0xca (size before relaxing)
 .debug_line_str
                0x000000d2       0xe8 d:/program files/gcc/arm gnu toolchain arm-none-eabi/12.2 rel1/bin/../lib/gcc/arm-none-eabi/12.2.1/thumb/v7+fp/hard\libg_nano.a(libc_a-strlen.o)
 .debug_line_str
                0x000001ba       0xca d:/program files/gcc/arm gnu toolchain arm-none-eabi/12.2 rel1/bin/../lib/gcc/arm-none-eabi/12.2.1/thumb/v7+fp/hard\libgcc.a(_udivsi3.o)
 .debug_line_str
                0x000001ba       0xca d:/program files/gcc/arm gnu toolchain arm-none-eabi/12.2 rel1/bin/../lib/gcc/arm-none-eabi/12.2.1/thumb/v7+fp/hard\libgcc.a(_divsi3.o)
